	.text
	.syntax unified
	.eabi_attribute	67, "2.09"	@ Tag_conformance
	.eabi_attribute	6, 2	@ Tag_CPU_arch
	.eabi_attribute	8, 1	@ Tag_ARM_ISA_use
	.eabi_attribute	9, 1	@ Tag_THUMB_ISA_use
	.eabi_attribute	34, 1	@ Tag_CPU_unaligned_access
	.eabi_attribute	17, 1	@ Tag_ABI_PCS_GOT_use
	.eabi_attribute	20, 1	@ Tag_ABI_FP_denormal
	.eabi_attribute	21, 1	@ Tag_ABI_FP_exceptions
	.eabi_attribute	23, 3	@ Tag_ABI_FP_number_model
	.eabi_attribute	24, 1	@ Tag_ABI_align_needed
	.eabi_attribute	25, 1	@ Tag_ABI_align_preserved
	.eabi_attribute	38, 1	@ Tag_ABI_FP_16bit_format
	.eabi_attribute	18, 4	@ Tag_ABI_PCS_wchar_t
	.eabi_attribute	26, 2	@ Tag_ABI_enum_size
	.eabi_attribute	14, 0	@ Tag_ABI_PCS_R9_use
	.file	"llvm-link"
	.file	1 "/workspaces/llvmta/testcases/singletest" "h264_dec/h264_decinput.c"
	.file	2 "/workspaces/llvmta/testcases/singletest" "h264_dec/h264_dec.c"
	.file	3 "/workspaces/llvmta/testcases/singletest" "h264_dec/h264_dec.h"
	.globl	h264_dec_return                 @ -- Begin function h264_dec_return
	.p2align	2
	.type	h264_dec_return,%function
	.code	32                              @ @h264_dec_return
h264_dec_return:
.Lfunc_begin0:
	.loc	2 60 0                          @ h264_dec/h264_dec.c:60:0
	.fnstart
	.cfi_sections .debug_frame
	.cfi_startproc
@ %bb.0:                                @ %entry
	.loc	2 61 41 prologue_end            @ h264_dec/h264_dec.c:61:41
	ldr	r0, .LCPI0_0
	.loc	2 61 12 is_stmt 0               @ h264_dec/h264_dec.c:61:12
	ldr	r1, .LCPI0_1
	.loc	2 61 41                         @ h264_dec/h264_dec.c:61:41
	ldrsb	r0, [r0]
	.loc	2 61 12                         @ h264_dec/h264_dec.c:61:12
	ldrsb	r1, [r1]
	.loc	2 61 39                         @ h264_dec/h264_dec.c:61:39
	add	r0, r1, r0
	mvn	r1, #127
	.loc	2 61 89                         @ h264_dec/h264_dec.c:61:89
	subs	r0, r0, r1
	movne	r0, #1
	.loc	2 61 3                          @ h264_dec/h264_dec.c:61:3
	bx	lr
.Ltmp0:
	.p2align	2
@ %bb.1:
	.loc	2 0 3                           @ h264_dec/h264_dec.c:0:3
.LCPI0_0:
	.long	h264_dec_dec_picture_imgUV
.LCPI0_1:
	.long	h264_dec_img_mpr
.Lfunc_end0:
	.size	h264_dec_return, .Lfunc_end0-h264_dec_return
	.cfi_endproc
	.cantunwind
	.fnend
                                        @ -- End function
	.globl	h264_dec_init                   @ -- Begin function h264_dec_init
	.p2align	2
	.type	h264_dec_init,%function
	.code	32                              @ @h264_dec_init
h264_dec_init:
.Lfunc_begin1:
	.loc	2 66 0 is_stmt 1                @ h264_dec/h264_dec.c:66:0
	.fnstart
	.cfi_startproc
@ %bb.0:                                @ %entry
	push	{r4, r10, r11, lr}
	.cfi_def_cfa_offset 16
	.cfi_offset lr, -4
	.cfi_offset r11, -8
	.cfi_offset r10, -12
	.cfi_offset r4, -16
	add	r11, sp, #8
	.cfi_def_cfa r11, 8
	sub	sp, sp, #4
	mov	r0, #0
	mov	r1, #2
.Ltmp1:
	.loc	2 69 24 prologue_end            @ h264_dec/h264_dec.c:69:24
	strb	r0, [sp, #3]
	ldr	r0, .LCPI1_0
.Ltmp2:
	@DEBUG_VALUE: h264_dec_init:p <- $r0
	.loc	2 0 24 is_stmt 0                @ h264_dec/h264_dec.c:0:24
	orr	r1, r1, #8448
.Ltmp3:
	@DEBUG_VALUE: h264_dec_init:i <- 0
	@DEBUG_VALUE: h264_dec_init:p <- $r0
	@DEBUG_VALUE: h264_dec_init:i <- [DW_OP_consts 8450, DW_OP_minus, DW_OP_consts 18446744073709551615, DW_OP_div, DW_OP_stack_value] $r1
	.loc	2 76 3 is_stmt 1                @ h264_dec/h264_dec.c:76:3
	cmp	r1, #0
	beq	.LBB1_2
.Ltmp4:
.LBB1_1:                                @ %for.body
                                        @ =>This Inner Loop Header: Depth=1
	@DEBUG_VALUE: h264_dec_init:i <- [DW_OP_consts 8450, DW_OP_minus, DW_OP_consts 18446744073709551615, DW_OP_div, DW_OP_stack_value] $r1
	@DEBUG_VALUE: h264_dec_init:p <- $r0
	.loc	2 77 8                          @ h264_dec/h264_dec.c:77:8
	ldrb	r2, [r0]
	.loc	2 77 11 is_stmt 0               @ h264_dec/h264_dec.c:77:11
	ldrb	r3, [sp, #3]
	.loc	2 76 3 is_stmt 1                @ h264_dec/h264_dec.c:76:3
	sub	r1, r1, #1
.Ltmp5:
	.loc	2 77 8                          @ h264_dec/h264_dec.c:77:8
	eor	r2, r2, r3
	strb	r2, [r0], #1
.Ltmp6:
	@DEBUG_VALUE: h264_dec_init:i <- [DW_OP_consts 8450, DW_OP_minus, DW_OP_consts 18446744073709551615, DW_OP_div, DW_OP_consts 1, DW_OP_plus, DW_OP_stack_value] $r1
	@DEBUG_VALUE: h264_dec_init:p <- $r0
	@DEBUG_VALUE: h264_dec_init:p <- $r0
	@DEBUG_VALUE: h264_dec_init:i <- [DW_OP_consts 8450, DW_OP_minus, DW_OP_consts 18446744073709551615, DW_OP_div, DW_OP_stack_value] $r1
	.loc	2 76 3                          @ h264_dec/h264_dec.c:76:3
	cmp	r1, #0
	bne	.LBB1_1
.Ltmp7:
.LBB1_2:                                @ %for.end
	@DEBUG_VALUE: h264_dec_init:i <- [DW_OP_consts 8450, DW_OP_minus, DW_OP_consts 18446744073709551615, DW_OP_div, DW_OP_stack_value] $r1
	@DEBUG_VALUE: h264_dec_init:p <- $r0
	.loc	2 0 3 is_stmt 0                 @ h264_dec/h264_dec.c:0:3
	ldr	r0, .LCPI1_1
.Ltmp8:
	@DEBUG_VALUE: h264_dec_init:p <- $r0
	mov	r1, #932
.Ltmp9:
	orr	r1, r1, #7168
.Ltmp10:
	@DEBUG_VALUE: h264_dec_init:i <- 0
	@DEBUG_VALUE: h264_dec_init:p <- $r0
	@DEBUG_VALUE: h264_dec_init:i <- [DW_OP_consts 8100, DW_OP_minus, DW_OP_consts 18446744073709551615, DW_OP_div, DW_OP_stack_value] $r1
	.loc	2 81 3 is_stmt 1                @ h264_dec/h264_dec.c:81:3
	cmp	r1, #0
	beq	.LBB1_4
.Ltmp11:
.LBB1_3:                                @ %for.body6
                                        @ =>This Inner Loop Header: Depth=1
	@DEBUG_VALUE: h264_dec_init:i <- [DW_OP_consts 8100, DW_OP_minus, DW_OP_consts 18446744073709551615, DW_OP_div, DW_OP_stack_value] $r1
	@DEBUG_VALUE: h264_dec_init:p <- $r0
	.loc	2 82 8                          @ h264_dec/h264_dec.c:82:8
	ldrb	r2, [r0]
	.loc	2 82 11 is_stmt 0               @ h264_dec/h264_dec.c:82:11
	ldrb	r3, [sp, #3]
	.loc	2 81 3 is_stmt 1                @ h264_dec/h264_dec.c:81:3
	sub	r1, r1, #1
.Ltmp12:
	.loc	2 82 8                          @ h264_dec/h264_dec.c:82:8
	eor	r2, r2, r3
	strb	r2, [r0], #1
.Ltmp13:
	@DEBUG_VALUE: h264_dec_init:i <- [DW_OP_consts 8100, DW_OP_minus, DW_OP_consts 18446744073709551615, DW_OP_div, DW_OP_consts 1, DW_OP_plus, DW_OP_stack_value] $r1
	@DEBUG_VALUE: h264_dec_init:p <- $r0
	@DEBUG_VALUE: h264_dec_init:p <- $r0
	@DEBUG_VALUE: h264_dec_init:i <- [DW_OP_consts 8100, DW_OP_minus, DW_OP_consts 18446744073709551615, DW_OP_div, DW_OP_stack_value] $r1
	.loc	2 81 3                          @ h264_dec/h264_dec.c:81:3
	cmp	r1, #0
	bne	.LBB1_3
.Ltmp14:
.LBB1_4:                                @ %for.end14
	@DEBUG_VALUE: h264_dec_init:i <- [DW_OP_consts 8100, DW_OP_minus, DW_OP_consts 18446744073709551615, DW_OP_div, DW_OP_stack_value] $r1
	@DEBUG_VALUE: h264_dec_init:p <- $r0
	.loc	2 0 3 is_stmt 0                 @ h264_dec/h264_dec.c:0:3
	ldr	r1, .LCPI1_2
.Ltmp15:
	mov	r0, #0
.Ltmp16:
	@DEBUG_VALUE: h264_dec_init:i <- 0
	@DEBUG_VALUE: h264_dec_init:p <- undef
	@DEBUG_VALUE: h264_dec_init:p <- [DW_OP_LLVM_arg 0, DW_OP_LLVM_arg 0, DW_OP_plus, DW_OP_stack_value] undef
	@DEBUG_VALUE: h264_dec_init:i <- $r0
	.loc	2 86 3 is_stmt 1                @ h264_dec/h264_dec.c:86:3
	cmp	r0, #1024
	beq	.LBB1_6
.Ltmp17:
.LBB1_5:                                @ %for.body18
                                        @ =>This Inner Loop Header: Depth=1
	@DEBUG_VALUE: h264_dec_init:i <- $r0
	.loc	2 87 8                          @ h264_dec/h264_dec.c:87:8
	ldrb	r2, [r1, r0]
	.loc	2 87 11 is_stmt 0               @ h264_dec/h264_dec.c:87:11
	ldrb	r3, [sp, #3]
	.loc	2 87 8                          @ h264_dec/h264_dec.c:87:8
	eor	r2, r2, r3
	strb	r2, [r1, r0]
	.loc	2 86 47 is_stmt 1               @ h264_dec/h264_dec.c:86:47
	add	r0, r0, #1
.Ltmp18:
	@DEBUG_VALUE: h264_dec_init:i <- $r0
	@DEBUG_VALUE: h264_dec_init:p <- [DW_OP_LLVM_arg 0, DW_OP_consts 1, DW_OP_LLVM_arg 1, DW_OP_plus, DW_OP_plus, DW_OP_stack_value] $r0, $r1
	@DEBUG_VALUE: h264_dec_init:p <- [DW_OP_LLVM_arg 0, DW_OP_LLVM_arg 0, DW_OP_plus, DW_OP_stack_value] undef
	@DEBUG_VALUE: h264_dec_init:i <- $r0
	.loc	2 86 3 is_stmt 0                @ h264_dec/h264_dec.c:86:3
	cmp	r0, #1024
	bne	.LBB1_5
.Ltmp19:
.LBB1_6:                                @ %for.end26
	@DEBUG_VALUE: h264_dec_init:i <- $r0
	.loc	2 89 29 is_stmt 1               @ h264_dec/h264_dec.c:89:29
	ldr	r0, .LCPI1_3
.Ltmp20:
	.loc	2 0 29 is_stmt 0                @ h264_dec/h264_dec.c:0:29
	mov	r2, #0
	mov	r1, #8
	mov	r3, #256
	mov	r12, #2
	mov	r4, #1
	mov	lr, #352
	.loc	2 96 44 is_stmt 1               @ h264_dec/h264_dec.c:96:44
	str	r4, [r0]
	.loc	2 97 21                         @ h264_dec/h264_dec.c:97:21
	stmib	r0, {r4, lr}
	.loc	2 93 24                         @ h264_dec/h264_dec.c:93:24
	str	r3, [r0, #12]
	.loc	2 92 24                         @ h264_dec/h264_dec.c:92:24
	str	r3, [r0, #16]
	.loc	2 99 41                         @ h264_dec/h264_dec.c:99:41
	str	r2, [r0, #532]
	.loc	2 98 32                         @ h264_dec/h264_dec.c:98:32
	str	r2, [r0, #536]
	.loc	2 95 30                         @ h264_dec/h264_dec.c:95:30
	str	r2, [r0, #540]
	.loc	2 91 30                         @ h264_dec/h264_dec.c:91:30
	str	r12, [r0, #544]
	.loc	2 89 29                         @ h264_dec/h264_dec.c:89:29
	str	r1, [r0, #548]
	.loc	2 90 29                         @ h264_dec/h264_dec.c:90:29
	str	r1, [r0, #552]
	.loc	2 100 1                         @ h264_dec/h264_dec.c:100:1
	sub	sp, r11, #8
	pop	{r4, r10, r11, lr}
	bx	lr
.Ltmp21:
	.p2align	2
@ %bb.7:
	.loc	2 0 1 is_stmt 0                 @ h264_dec/h264_dec.c:0:1
.LCPI1_0:
	.long	h264_dec_mv_array
.LCPI1_1:
	.long	h264_dec_list_imgUV
.LCPI1_2:
	.long	h264_dec_img_m7
.LCPI1_3:
	.long	h264_dec_img
.Lfunc_end1:
	.size	h264_dec_init, .Lfunc_end1-h264_dec_init
	.cfi_endproc
	.cantunwind
	.fnend
                                        @ -- End function
	.globl	h264_dec_decode_one_macroblock  @ -- Begin function h264_dec_decode_one_macroblock
	.p2align	2
	.type	h264_dec_decode_one_macroblock,%function
	.code	32                              @ @h264_dec_decode_one_macroblock
h264_dec_decode_one_macroblock:
.Lfunc_begin2:
	.loc	2 108 0 is_stmt 1               @ h264_dec/h264_dec.c:108:0
	.fnstart
	.cfi_startproc
@ %bb.0:                                @ %entry
	@DEBUG_VALUE: h264_dec_decode_one_macroblock:img <- $r0
	push	{r4, r5, r6, r7, r8, r9, r10, r11, lr}
	.cfi_def_cfa_offset 36
	.cfi_offset lr, -4
	.cfi_offset r11, -8
	.cfi_offset r10, -12
	.cfi_offset r9, -16
	.cfi_offset r8, -20
	.cfi_offset r7, -24
	.cfi_offset r6, -28
	.cfi_offset r5, -32
	.cfi_offset r4, -36
	add	r11, sp, #28
	.cfi_def_cfa r11, 8
	sub	sp, sp, #100
.Ltmp22:
	@DEBUG_VALUE: h264_dec_decode_one_macroblock:i <- 0
	@DEBUG_VALUE: h264_dec_decode_one_macroblock:j <- 0
	@DEBUG_VALUE: h264_dec_decode_one_macroblock:ii <- 0
	@DEBUG_VALUE: h264_dec_decode_one_macroblock:jj <- 0
	@DEBUG_VALUE: h264_dec_decode_one_macroblock:i1 <- 0
	@DEBUG_VALUE: h264_dec_decode_one_macroblock:j1 <- 0
	@DEBUG_VALUE: h264_dec_decode_one_macroblock:j4 <- 0
	@DEBUG_VALUE: h264_dec_decode_one_macroblock:i4 <- 0
	@DEBUG_VALUE: h264_dec_decode_one_macroblock:bw_pred <- 0
	@DEBUG_VALUE: h264_dec_decode_one_macroblock:fw_pred <- 0
	@DEBUG_VALUE: h264_dec_decode_one_macroblock:fw_refframe <- -1
	@DEBUG_VALUE: h264_dec_decode_one_macroblock:bw_refframe <- -1
	@DEBUG_VALUE: h264_dec_decode_one_macroblock:fw_ref_idx <- -1
	@DEBUG_VALUE: h264_dec_decode_one_macroblock:bw_ref_idx <- -1
	@DEBUG_VALUE: h264_dec_decode_one_macroblock:mb_nr <- 0
	@DEBUG_VALUE: h264_dec_decode_one_macroblock:dec_picture_ref_idx <- 0
	@DEBUG_VALUE: h264_dec_decode_one_macroblock:active_sps_chroma_format_idc <- 1
	@DEBUG_VALUE: h264_dec_decode_one_macroblock:active_pps_weighted_pred_flag <- 0
	@DEBUG_VALUE: h264_dec_decode_one_macroblock:active_pps_weighted_bipred_idc <- 0
	@DEBUG_VALUE: h264_dec_decode_one_macroblock:smb <- 0
	@DEBUG_VALUE: h264_dec_decode_one_macroblock:max_y_cr <- 287
	@DEBUG_VALUE: h264_dec_decode_one_macroblock:direct_pdir <- -1
	@DEBUG_VALUE: h264_dec_decode_one_macroblock:curr_mb_field <- 0
	@DEBUG_VALUE: h264_dec_decode_one_macroblock:residue_transform_flag <- 0
	.loc	2 141 22 prologue_end           @ h264_dec/h264_dec.c:141:22
	ldr	r1, [r0, #548]
	.loc	2 144 22                        @ h264_dec/h264_dec.c:144:22
	ldr	r5, [r0, #552]
	str	r0, [r11, #-32]                 @ 4-byte Spill
.Ltmp23:
	@DEBUG_VALUE: h264_dec_decode_one_macroblock:img <- [DW_OP_constu 32, DW_OP_minus] [$r11+0]
	@DEBUG_VALUE: h264_dec_decode_one_macroblock:img <- [DW_OP_constu 32, DW_OP_minus] [$r11+0]
	.loc	2 141 15                        @ h264_dec/h264_dec.c:141:15
	mov	r0, #64
	bl	__divsi3
	mov	r9, r0
.Ltmp24:
	@DEBUG_VALUE: h264_dec_decode_one_macroblock:f1_x <- $r9
	.loc	2 144 15                        @ h264_dec/h264_dec.c:144:15
	mov	r0, #64
	mov	r1, r5
	bl	__divsi3
.Ltmp25:
	@DEBUG_VALUE: h264_dec_decode_one_macroblock:f1_y <- $r0
	.loc	2 0 15 is_stmt 0                @ h264_dec/h264_dec.c:0:15
	mov	r7, #31
	.loc	2 147 15 is_stmt 1              @ h264_dec/h264_dec.c:147:15
	mul	r1, r9, r0
.Ltmp26:
	@DEBUG_VALUE: h264_dec_decode_one_macroblock:f3 <- $r1
	.loc	2 0 15 is_stmt 0                @ h264_dec/h264_dec.c:0:15
	str	r0, [r11, #-36]                 @ 4-byte Spill
.Ltmp27:
	@DEBUG_VALUE: h264_dec_decode_one_macroblock:f1_y <- [DW_OP_constu 36, DW_OP_minus] [$r11+0]
	.loc	2 145 17 is_stmt 1              @ h264_dec/h264_dec.c:145:17
	sub	r0, r0, #1
.Ltmp28:
	@DEBUG_VALUE: h264_dec_decode_one_macroblock:f2_y <- $r0
	.loc	2 0 17 is_stmt 0                @ h264_dec/h264_dec.c:0:17
	mov	r8, #0
.Ltmp29:
	@DEBUG_VALUE: h264_dec_decode_one_macroblock:uv <- 0
	str	r9, [r11, #-56]                 @ 4-byte Spill
.Ltmp30:
	@DEBUG_VALUE: h264_dec_decode_one_macroblock:f1_x <- [DW_OP_constu 56, DW_OP_minus] [$r11+0]
	str	r1, [sp, #16]                   @ 4-byte Spill
.Ltmp31:
	@DEBUG_VALUE: h264_dec_decode_one_macroblock:f3 <- [DW_OP_plus_uconst 16] [$sp+0]
	.loc	2 148 13 is_stmt 1              @ h264_dec/h264_dec.c:148:13
	asr	r1, r1, #1
.Ltmp32:
	@DEBUG_VALUE: h264_dec_decode_one_macroblock:f4 <- $r1
	.loc	2 0 13 is_stmt 0                @ h264_dec/h264_dec.c:0:13
	str	r0, [r11, #-60]                 @ 4-byte Spill
.Ltmp33:
	@DEBUG_VALUE: h264_dec_decode_one_macroblock:f2_y <- [DW_OP_constu 60, DW_OP_minus] [$r11+0]
	@DEBUG_VALUE: h264_dec_decode_one_macroblock:f2_y <- [DW_OP_constu 60, DW_OP_minus] [$r11+0]
	.loc	2 142 17 is_stmt 1              @ h264_dec/h264_dec.c:142:17
	sub	r0, r9, #1
.Ltmp34:
	@DEBUG_VALUE: h264_dec_decode_one_macroblock:f2_x <- $r0
	.loc	2 0 17 is_stmt 0                @ h264_dec/h264_dec.c:0:17
	orr	r7, r7, #256
	str	r1, [sp, #12]                   @ 4-byte Spill
.Ltmp35:
	@DEBUG_VALUE: h264_dec_decode_one_macroblock:f4 <- [DW_OP_plus_uconst 12] [$sp+0]
	@DEBUG_VALUE: h264_dec_decode_one_macroblock:f4 <- [DW_OP_plus_uconst 12] [$sp+0]
	str	r0, [sp, #8]                    @ 4-byte Spill
.Ltmp36:
	@DEBUG_VALUE: h264_dec_decode_one_macroblock:f2_x <- [DW_OP_plus_uconst 8] [$sp+0]
	@DEBUG_VALUE: h264_dec_decode_one_macroblock:f2_x <- [DW_OP_plus_uconst 8] [$sp+0]
	b	.LBB2_2
.Ltmp37:
.LBB2_1:                                @ %for.end1300
                                        @   in Loop: Header=BB2_2 Depth=1
	@DEBUG_VALUE: h264_dec_decode_one_macroblock:b8 <- $r1
	@DEBUG_VALUE: h264_dec_decode_one_macroblock:intra_prediction <- 0
	@DEBUG_VALUE: h264_dec_decode_one_macroblock:f2_x <- [DW_OP_plus_uconst 8] [$sp+0]
	@DEBUG_VALUE: h264_dec_decode_one_macroblock:f4 <- [DW_OP_plus_uconst 12] [$sp+0]
	@DEBUG_VALUE: h264_dec_decode_one_macroblock:f2_y <- [DW_OP_constu 60, DW_OP_minus] [$r11+0]
	@DEBUG_VALUE: h264_dec_decode_one_macroblock:f3 <- [DW_OP_plus_uconst 16] [$sp+0]
	@DEBUG_VALUE: h264_dec_decode_one_macroblock:f1_x <- [DW_OP_constu 56, DW_OP_minus] [$r11+0]
	@DEBUG_VALUE: h264_dec_decode_one_macroblock:f1_y <- [DW_OP_constu 36, DW_OP_minus] [$r11+0]
	@DEBUG_VALUE: h264_dec_decode_one_macroblock:img <- [DW_OP_constu 32, DW_OP_minus] [$r11+0]
	@DEBUG_VALUE: h264_dec_decode_one_macroblock:residue_transform_flag <- 0
	@DEBUG_VALUE: h264_dec_decode_one_macroblock:curr_mb_field <- 0
	@DEBUG_VALUE: h264_dec_decode_one_macroblock:direct_pdir <- -1
	@DEBUG_VALUE: h264_dec_decode_one_macroblock:max_y_cr <- 287
	@DEBUG_VALUE: h264_dec_decode_one_macroblock:smb <- 0
	@DEBUG_VALUE: h264_dec_decode_one_macroblock:active_pps_weighted_bipred_idc <- 0
	@DEBUG_VALUE: h264_dec_decode_one_macroblock:active_pps_weighted_pred_flag <- 0
	@DEBUG_VALUE: h264_dec_decode_one_macroblock:active_sps_chroma_format_idc <- 1
	@DEBUG_VALUE: h264_dec_decode_one_macroblock:dec_picture_ref_idx <- 0
	@DEBUG_VALUE: h264_dec_decode_one_macroblock:mb_nr <- 0
	@DEBUG_VALUE: h264_dec_decode_one_macroblock:bw_ref_idx <- -1
	@DEBUG_VALUE: h264_dec_decode_one_macroblock:fw_ref_idx <- -1
	@DEBUG_VALUE: h264_dec_decode_one_macroblock:bw_refframe <- -1
	@DEBUG_VALUE: h264_dec_decode_one_macroblock:fw_refframe <- -1
	@DEBUG_VALUE: h264_dec_decode_one_macroblock:fw_pred <- 0
	@DEBUG_VALUE: h264_dec_decode_one_macroblock:bw_pred <- 0
	@DEBUG_VALUE: h264_dec_decode_one_macroblock:j <- 0
	@DEBUG_VALUE: h264_dec_decode_one_macroblock:i <- 0
	.loc	2 151 29 is_stmt 1              @ h264_dec/h264_dec.c:151:29
	add	r8, r8, #1
.Ltmp38:
	@DEBUG_VALUE: h264_dec_decode_one_macroblock:uv <- $r8
.LBB2_2:                                @ %for.cond
                                        @ =>This Loop Header: Depth=1
                                        @     Child Loop BB2_5 Depth 2
                                        @       Child Loop BB2_8 Depth 3
                                        @         Child Loop BB2_11 Depth 4
                                        @           Child Loop BB2_14 Depth 5
                                        @         Child Loop BB2_47 Depth 4
                                        @           Child Loop BB2_49 Depth 5
	@DEBUG_VALUE: h264_dec_decode_one_macroblock:f2_x <- [DW_OP_plus_uconst 8] [$sp+0]
	@DEBUG_VALUE: h264_dec_decode_one_macroblock:f4 <- [DW_OP_plus_uconst 12] [$sp+0]
	@DEBUG_VALUE: h264_dec_decode_one_macroblock:f2_y <- [DW_OP_constu 60, DW_OP_minus] [$r11+0]
	@DEBUG_VALUE: h264_dec_decode_one_macroblock:f3 <- [DW_OP_plus_uconst 16] [$sp+0]
	@DEBUG_VALUE: h264_dec_decode_one_macroblock:f1_x <- [DW_OP_constu 56, DW_OP_minus] [$r11+0]
	@DEBUG_VALUE: h264_dec_decode_one_macroblock:f1_y <- [DW_OP_constu 36, DW_OP_minus] [$r11+0]
	@DEBUG_VALUE: h264_dec_decode_one_macroblock:img <- [DW_OP_constu 32, DW_OP_minus] [$r11+0]
	@DEBUG_VALUE: h264_dec_decode_one_macroblock:residue_transform_flag <- 0
	@DEBUG_VALUE: h264_dec_decode_one_macroblock:curr_mb_field <- 0
	@DEBUG_VALUE: h264_dec_decode_one_macroblock:direct_pdir <- -1
	@DEBUG_VALUE: h264_dec_decode_one_macroblock:max_y_cr <- 287
	@DEBUG_VALUE: h264_dec_decode_one_macroblock:smb <- 0
	@DEBUG_VALUE: h264_dec_decode_one_macroblock:active_pps_weighted_bipred_idc <- 0
	@DEBUG_VALUE: h264_dec_decode_one_macroblock:active_pps_weighted_pred_flag <- 0
	@DEBUG_VALUE: h264_dec_decode_one_macroblock:active_sps_chroma_format_idc <- 1
	@DEBUG_VALUE: h264_dec_decode_one_macroblock:dec_picture_ref_idx <- 0
	@DEBUG_VALUE: h264_dec_decode_one_macroblock:mb_nr <- 0
	@DEBUG_VALUE: h264_dec_decode_one_macroblock:bw_ref_idx <- -1
	@DEBUG_VALUE: h264_dec_decode_one_macroblock:fw_ref_idx <- -1
	@DEBUG_VALUE: h264_dec_decode_one_macroblock:bw_refframe <- -1
	@DEBUG_VALUE: h264_dec_decode_one_macroblock:fw_refframe <- -1
	@DEBUG_VALUE: h264_dec_decode_one_macroblock:fw_pred <- 0
	@DEBUG_VALUE: h264_dec_decode_one_macroblock:bw_pred <- 0
	@DEBUG_VALUE: h264_dec_decode_one_macroblock:j <- 0
	@DEBUG_VALUE: h264_dec_decode_one_macroblock:i <- 0
	@DEBUG_VALUE: h264_dec_decode_one_macroblock:bw_pred <- 0
	@DEBUG_VALUE: h264_dec_decode_one_macroblock:fw_pred <- 0
	@DEBUG_VALUE: h264_dec_decode_one_macroblock:fw_ref_idx <- -1
	@DEBUG_VALUE: h264_dec_decode_one_macroblock:bw_ref_idx <- -1
	@DEBUG_VALUE: h264_dec_decode_one_macroblock:mb_nr <- 0
	@DEBUG_VALUE: h264_dec_decode_one_macroblock:uv <- $r8
	.loc	2 151 5 is_stmt 0               @ h264_dec/h264_dec.c:151:5
	cmp	r8, #2
	beq	.LBB2_50
.Ltmp39:
@ %bb.3:                                @ %for.body
                                        @   in Loop: Header=BB2_2 Depth=1
	@DEBUG_VALUE: h264_dec_decode_one_macroblock:uv <- $r8
	@DEBUG_VALUE: h264_dec_decode_one_macroblock:f2_x <- [DW_OP_plus_uconst 8] [$sp+0]
	@DEBUG_VALUE: h264_dec_decode_one_macroblock:f4 <- [DW_OP_plus_uconst 12] [$sp+0]
	@DEBUG_VALUE: h264_dec_decode_one_macroblock:f2_y <- [DW_OP_constu 60, DW_OP_minus] [$r11+0]
	@DEBUG_VALUE: h264_dec_decode_one_macroblock:f3 <- [DW_OP_plus_uconst 16] [$sp+0]
	@DEBUG_VALUE: h264_dec_decode_one_macroblock:f1_x <- [DW_OP_constu 56, DW_OP_minus] [$r11+0]
	@DEBUG_VALUE: h264_dec_decode_one_macroblock:f1_y <- [DW_OP_constu 36, DW_OP_minus] [$r11+0]
	@DEBUG_VALUE: h264_dec_decode_one_macroblock:img <- [DW_OP_constu 32, DW_OP_minus] [$r11+0]
	@DEBUG_VALUE: h264_dec_decode_one_macroblock:residue_transform_flag <- 0
	@DEBUG_VALUE: h264_dec_decode_one_macroblock:curr_mb_field <- 0
	@DEBUG_VALUE: h264_dec_decode_one_macroblock:direct_pdir <- -1
	@DEBUG_VALUE: h264_dec_decode_one_macroblock:max_y_cr <- 287
	@DEBUG_VALUE: h264_dec_decode_one_macroblock:smb <- 0
	@DEBUG_VALUE: h264_dec_decode_one_macroblock:active_pps_weighted_bipred_idc <- 0
	@DEBUG_VALUE: h264_dec_decode_one_macroblock:active_pps_weighted_pred_flag <- 0
	@DEBUG_VALUE: h264_dec_decode_one_macroblock:active_sps_chroma_format_idc <- 1
	@DEBUG_VALUE: h264_dec_decode_one_macroblock:dec_picture_ref_idx <- 0
	@DEBUG_VALUE: h264_dec_decode_one_macroblock:mb_nr <- 0
	@DEBUG_VALUE: h264_dec_decode_one_macroblock:bw_ref_idx <- -1
	@DEBUG_VALUE: h264_dec_decode_one_macroblock:fw_ref_idx <- -1
	@DEBUG_VALUE: h264_dec_decode_one_macroblock:bw_refframe <- -1
	@DEBUG_VALUE: h264_dec_decode_one_macroblock:fw_refframe <- -1
	@DEBUG_VALUE: h264_dec_decode_one_macroblock:fw_pred <- 0
	@DEBUG_VALUE: h264_dec_decode_one_macroblock:bw_pred <- 0
	@DEBUG_VALUE: h264_dec_decode_one_macroblock:j <- 0
	@DEBUG_VALUE: h264_dec_decode_one_macroblock:i <- 0
	.loc	2 0 5                           @ h264_dec/h264_dec.c:0:5
	mov	r1, #0
.Ltmp40:
	@DEBUG_VALUE: h264_dec_decode_one_macroblock:b8 <- 0
	@DEBUG_VALUE: h264_dec_decode_one_macroblock:intra_prediction <- 0
	str	r8, [r11, #-52]                 @ 4-byte Spill
	b	.LBB2_5
.Ltmp41:
.LBB2_4:                                @ %for.end1297
                                        @   in Loop: Header=BB2_5 Depth=2
	@DEBUG_VALUE: h264_dec_decode_one_macroblock:b4 <- $r10
	@DEBUG_VALUE: h264_dec_decode_one_macroblock:intra_prediction <- 0
	@DEBUG_VALUE: h264_dec_decode_one_macroblock:f2_x <- [DW_OP_plus_uconst 8] [$sp+0]
	@DEBUG_VALUE: h264_dec_decode_one_macroblock:f4 <- [DW_OP_plus_uconst 12] [$sp+0]
	@DEBUG_VALUE: h264_dec_decode_one_macroblock:f2_y <- [DW_OP_constu 60, DW_OP_minus] [$r11+0]
	@DEBUG_VALUE: h264_dec_decode_one_macroblock:f3 <- [DW_OP_plus_uconst 16] [$sp+0]
	@DEBUG_VALUE: h264_dec_decode_one_macroblock:f1_x <- [DW_OP_constu 56, DW_OP_minus] [$r11+0]
	@DEBUG_VALUE: h264_dec_decode_one_macroblock:f1_y <- [DW_OP_constu 36, DW_OP_minus] [$r11+0]
	@DEBUG_VALUE: h264_dec_decode_one_macroblock:img <- [DW_OP_constu 32, DW_OP_minus] [$r11+0]
	@DEBUG_VALUE: h264_dec_decode_one_macroblock:residue_transform_flag <- 0
	@DEBUG_VALUE: h264_dec_decode_one_macroblock:curr_mb_field <- 0
	@DEBUG_VALUE: h264_dec_decode_one_macroblock:direct_pdir <- -1
	@DEBUG_VALUE: h264_dec_decode_one_macroblock:max_y_cr <- 287
	@DEBUG_VALUE: h264_dec_decode_one_macroblock:smb <- 0
	@DEBUG_VALUE: h264_dec_decode_one_macroblock:active_pps_weighted_bipred_idc <- 0
	@DEBUG_VALUE: h264_dec_decode_one_macroblock:active_pps_weighted_pred_flag <- 0
	@DEBUG_VALUE: h264_dec_decode_one_macroblock:active_sps_chroma_format_idc <- 1
	@DEBUG_VALUE: h264_dec_decode_one_macroblock:dec_picture_ref_idx <- 0
	@DEBUG_VALUE: h264_dec_decode_one_macroblock:mb_nr <- 0
	@DEBUG_VALUE: h264_dec_decode_one_macroblock:bw_ref_idx <- -1
	@DEBUG_VALUE: h264_dec_decode_one_macroblock:fw_ref_idx <- -1
	@DEBUG_VALUE: h264_dec_decode_one_macroblock:bw_refframe <- -1
	@DEBUG_VALUE: h264_dec_decode_one_macroblock:fw_refframe <- -1
	@DEBUG_VALUE: h264_dec_decode_one_macroblock:fw_pred <- 0
	@DEBUG_VALUE: h264_dec_decode_one_macroblock:bw_pred <- 0
	@DEBUG_VALUE: h264_dec_decode_one_macroblock:j <- 0
	@DEBUG_VALUE: h264_dec_decode_one_macroblock:i <- 0
	.loc	2 156 56 is_stmt 1              @ h264_dec/h264_dec.c:156:56
	add	r1, r1, #1
.Ltmp42:
	@DEBUG_VALUE: h264_dec_decode_one_macroblock:b8 <- $r1
.LBB2_5:                                @ %for.cond3
                                        @   Parent Loop BB2_2 Depth=1
                                        @ =>  This Loop Header: Depth=2
                                        @       Child Loop BB2_8 Depth 3
                                        @         Child Loop BB2_11 Depth 4
                                        @           Child Loop BB2_14 Depth 5
                                        @         Child Loop BB2_47 Depth 4
                                        @           Child Loop BB2_49 Depth 5
	@DEBUG_VALUE: h264_dec_decode_one_macroblock:intra_prediction <- 0
	@DEBUG_VALUE: h264_dec_decode_one_macroblock:f2_x <- [DW_OP_plus_uconst 8] [$sp+0]
	@DEBUG_VALUE: h264_dec_decode_one_macroblock:f4 <- [DW_OP_plus_uconst 12] [$sp+0]
	@DEBUG_VALUE: h264_dec_decode_one_macroblock:f2_y <- [DW_OP_constu 60, DW_OP_minus] [$r11+0]
	@DEBUG_VALUE: h264_dec_decode_one_macroblock:f3 <- [DW_OP_plus_uconst 16] [$sp+0]
	@DEBUG_VALUE: h264_dec_decode_one_macroblock:f1_x <- [DW_OP_constu 56, DW_OP_minus] [$r11+0]
	@DEBUG_VALUE: h264_dec_decode_one_macroblock:f1_y <- [DW_OP_constu 36, DW_OP_minus] [$r11+0]
	@DEBUG_VALUE: h264_dec_decode_one_macroblock:img <- [DW_OP_constu 32, DW_OP_minus] [$r11+0]
	@DEBUG_VALUE: h264_dec_decode_one_macroblock:residue_transform_flag <- 0
	@DEBUG_VALUE: h264_dec_decode_one_macroblock:curr_mb_field <- 0
	@DEBUG_VALUE: h264_dec_decode_one_macroblock:direct_pdir <- -1
	@DEBUG_VALUE: h264_dec_decode_one_macroblock:max_y_cr <- 287
	@DEBUG_VALUE: h264_dec_decode_one_macroblock:smb <- 0
	@DEBUG_VALUE: h264_dec_decode_one_macroblock:active_pps_weighted_bipred_idc <- 0
	@DEBUG_VALUE: h264_dec_decode_one_macroblock:active_pps_weighted_pred_flag <- 0
	@DEBUG_VALUE: h264_dec_decode_one_macroblock:active_sps_chroma_format_idc <- 1
	@DEBUG_VALUE: h264_dec_decode_one_macroblock:dec_picture_ref_idx <- 0
	@DEBUG_VALUE: h264_dec_decode_one_macroblock:mb_nr <- 0
	@DEBUG_VALUE: h264_dec_decode_one_macroblock:bw_ref_idx <- -1
	@DEBUG_VALUE: h264_dec_decode_one_macroblock:fw_ref_idx <- -1
	@DEBUG_VALUE: h264_dec_decode_one_macroblock:bw_refframe <- -1
	@DEBUG_VALUE: h264_dec_decode_one_macroblock:fw_refframe <- -1
	@DEBUG_VALUE: h264_dec_decode_one_macroblock:fw_pred <- 0
	@DEBUG_VALUE: h264_dec_decode_one_macroblock:bw_pred <- 0
	@DEBUG_VALUE: h264_dec_decode_one_macroblock:j <- 0
	@DEBUG_VALUE: h264_dec_decode_one_macroblock:i <- 0
	@DEBUG_VALUE: h264_dec_decode_one_macroblock:bw_pred <- 0
	@DEBUG_VALUE: h264_dec_decode_one_macroblock:fw_pred <- 0
	@DEBUG_VALUE: h264_dec_decode_one_macroblock:fw_ref_idx <- -1
	@DEBUG_VALUE: h264_dec_decode_one_macroblock:bw_ref_idx <- -1
	@DEBUG_VALUE: h264_dec_decode_one_macroblock:mb_nr <- 0
	@DEBUG_VALUE: h264_dec_decode_one_macroblock:b8 <- $r1
	.loc	2 156 33 is_stmt 0              @ h264_dec/h264_dec.c:156:33
	ldr	r0, [r11, #-32]                 @ 4-byte Reload
	ldr	r0, [r0, #544]
	.loc	2 156 47                        @ h264_dec/h264_dec.c:156:47
	add	r0, r0, r0, lsr #31
.Ltmp43:
	.loc	2 156 7                         @ h264_dec/h264_dec.c:156:7
	cmp	r1, r0, asr #1
	bge	.LBB2_1
.Ltmp44:
@ %bb.6:                                @ %for.body6
                                        @   in Loop: Header=BB2_5 Depth=2
	@DEBUG_VALUE: h264_dec_decode_one_macroblock:b8 <- $r1
	@DEBUG_VALUE: h264_dec_decode_one_macroblock:intra_prediction <- 0
	@DEBUG_VALUE: h264_dec_decode_one_macroblock:f2_x <- [DW_OP_plus_uconst 8] [$sp+0]
	@DEBUG_VALUE: h264_dec_decode_one_macroblock:f4 <- [DW_OP_plus_uconst 12] [$sp+0]
	@DEBUG_VALUE: h264_dec_decode_one_macroblock:f2_y <- [DW_OP_constu 60, DW_OP_minus] [$r11+0]
	@DEBUG_VALUE: h264_dec_decode_one_macroblock:f3 <- [DW_OP_plus_uconst 16] [$sp+0]
	@DEBUG_VALUE: h264_dec_decode_one_macroblock:f1_x <- [DW_OP_constu 56, DW_OP_minus] [$r11+0]
	@DEBUG_VALUE: h264_dec_decode_one_macroblock:f1_y <- [DW_OP_constu 36, DW_OP_minus] [$r11+0]
	@DEBUG_VALUE: h264_dec_decode_one_macroblock:img <- [DW_OP_constu 32, DW_OP_minus] [$r11+0]
	@DEBUG_VALUE: h264_dec_decode_one_macroblock:residue_transform_flag <- 0
	@DEBUG_VALUE: h264_dec_decode_one_macroblock:curr_mb_field <- 0
	@DEBUG_VALUE: h264_dec_decode_one_macroblock:direct_pdir <- -1
	@DEBUG_VALUE: h264_dec_decode_one_macroblock:max_y_cr <- 287
	@DEBUG_VALUE: h264_dec_decode_one_macroblock:smb <- 0
	@DEBUG_VALUE: h264_dec_decode_one_macroblock:active_pps_weighted_bipred_idc <- 0
	@DEBUG_VALUE: h264_dec_decode_one_macroblock:active_pps_weighted_pred_flag <- 0
	@DEBUG_VALUE: h264_dec_decode_one_macroblock:active_sps_chroma_format_idc <- 1
	@DEBUG_VALUE: h264_dec_decode_one_macroblock:dec_picture_ref_idx <- 0
	@DEBUG_VALUE: h264_dec_decode_one_macroblock:mb_nr <- 0
	@DEBUG_VALUE: h264_dec_decode_one_macroblock:bw_ref_idx <- -1
	@DEBUG_VALUE: h264_dec_decode_one_macroblock:fw_ref_idx <- -1
	@DEBUG_VALUE: h264_dec_decode_one_macroblock:bw_refframe <- -1
	@DEBUG_VALUE: h264_dec_decode_one_macroblock:fw_refframe <- -1
	@DEBUG_VALUE: h264_dec_decode_one_macroblock:fw_pred <- 0
	@DEBUG_VALUE: h264_dec_decode_one_macroblock:bw_pred <- 0
	@DEBUG_VALUE: h264_dec_decode_one_macroblock:j <- 0
	@DEBUG_VALUE: h264_dec_decode_one_macroblock:i <- 0
	.loc	2 0 7                           @ h264_dec/h264_dec.c:0:7
	mov	r10, #0
.Ltmp45:
	@DEBUG_VALUE: h264_dec_decode_one_macroblock:b4 <- 0
	str	r1, [sp]                        @ 4-byte Spill
	b	.LBB2_8
.Ltmp46:
.LBB2_7:                                @ %if.end1294
                                        @   in Loop: Header=BB2_8 Depth=3
	@DEBUG_VALUE: h264_dec_decode_one_macroblock:ii <- $lr
	@DEBUG_VALUE: h264_dec_decode_one_macroblock:pred_dir <- -1
	@DEBUG_VALUE: h264_dec_decode_one_macroblock:mv_mode <- 1
	@DEBUG_VALUE: h264_dec_decode_one_macroblock:ioff <- 0
	@DEBUG_VALUE: h264_dec_decode_one_macroblock:joff <- 0
	@DEBUG_VALUE: h264_dec_decode_one_macroblock:intra_prediction <- 0
	@DEBUG_VALUE: h264_dec_decode_one_macroblock:f2_x <- [DW_OP_plus_uconst 8] [$sp+0]
	@DEBUG_VALUE: h264_dec_decode_one_macroblock:f4 <- [DW_OP_plus_uconst 12] [$sp+0]
	@DEBUG_VALUE: h264_dec_decode_one_macroblock:f2_y <- [DW_OP_constu 60, DW_OP_minus] [$r11+0]
	@DEBUG_VALUE: h264_dec_decode_one_macroblock:f3 <- [DW_OP_plus_uconst 16] [$sp+0]
	@DEBUG_VALUE: h264_dec_decode_one_macroblock:f1_x <- [DW_OP_constu 56, DW_OP_minus] [$r11+0]
	@DEBUG_VALUE: h264_dec_decode_one_macroblock:f1_y <- [DW_OP_constu 36, DW_OP_minus] [$r11+0]
	@DEBUG_VALUE: h264_dec_decode_one_macroblock:img <- [DW_OP_constu 32, DW_OP_minus] [$r11+0]
	@DEBUG_VALUE: h264_dec_decode_one_macroblock:residue_transform_flag <- 0
	@DEBUG_VALUE: h264_dec_decode_one_macroblock:curr_mb_field <- 0
	@DEBUG_VALUE: h264_dec_decode_one_macroblock:direct_pdir <- -1
	@DEBUG_VALUE: h264_dec_decode_one_macroblock:max_y_cr <- 287
	@DEBUG_VALUE: h264_dec_decode_one_macroblock:smb <- 0
	@DEBUG_VALUE: h264_dec_decode_one_macroblock:active_pps_weighted_bipred_idc <- 0
	@DEBUG_VALUE: h264_dec_decode_one_macroblock:active_pps_weighted_pred_flag <- 0
	@DEBUG_VALUE: h264_dec_decode_one_macroblock:active_sps_chroma_format_idc <- 1
	@DEBUG_VALUE: h264_dec_decode_one_macroblock:dec_picture_ref_idx <- 0
	@DEBUG_VALUE: h264_dec_decode_one_macroblock:mb_nr <- 0
	@DEBUG_VALUE: h264_dec_decode_one_macroblock:bw_refframe <- -1
	@DEBUG_VALUE: h264_dec_decode_one_macroblock:fw_refframe <- -1
	@DEBUG_VALUE: h264_dec_decode_one_macroblock:j <- 0
	@DEBUG_VALUE: h264_dec_decode_one_macroblock:i <- 0
	.loc	2 158 33 is_stmt 1              @ h264_dec/h264_dec.c:158:33
	add	r10, r10, #1
.Ltmp47:
	@DEBUG_VALUE: h264_dec_decode_one_macroblock:b4 <- $r10
.LBB2_8:                                @ %for.cond7
                                        @   Parent Loop BB2_2 Depth=1
                                        @     Parent Loop BB2_5 Depth=2
                                        @ =>    This Loop Header: Depth=3
                                        @         Child Loop BB2_11 Depth 4
                                        @           Child Loop BB2_14 Depth 5
                                        @         Child Loop BB2_47 Depth 4
                                        @           Child Loop BB2_49 Depth 5
	@DEBUG_VALUE: h264_dec_decode_one_macroblock:intra_prediction <- 0
	@DEBUG_VALUE: h264_dec_decode_one_macroblock:f2_x <- [DW_OP_plus_uconst 8] [$sp+0]
	@DEBUG_VALUE: h264_dec_decode_one_macroblock:f4 <- [DW_OP_plus_uconst 12] [$sp+0]
	@DEBUG_VALUE: h264_dec_decode_one_macroblock:f2_y <- [DW_OP_constu 60, DW_OP_minus] [$r11+0]
	@DEBUG_VALUE: h264_dec_decode_one_macroblock:f3 <- [DW_OP_plus_uconst 16] [$sp+0]
	@DEBUG_VALUE: h264_dec_decode_one_macroblock:f1_x <- [DW_OP_constu 56, DW_OP_minus] [$r11+0]
	@DEBUG_VALUE: h264_dec_decode_one_macroblock:f1_y <- [DW_OP_constu 36, DW_OP_minus] [$r11+0]
	@DEBUG_VALUE: h264_dec_decode_one_macroblock:img <- [DW_OP_constu 32, DW_OP_minus] [$r11+0]
	@DEBUG_VALUE: h264_dec_decode_one_macroblock:residue_transform_flag <- 0
	@DEBUG_VALUE: h264_dec_decode_one_macroblock:curr_mb_field <- 0
	@DEBUG_VALUE: h264_dec_decode_one_macroblock:direct_pdir <- -1
	@DEBUG_VALUE: h264_dec_decode_one_macroblock:max_y_cr <- 287
	@DEBUG_VALUE: h264_dec_decode_one_macroblock:smb <- 0
	@DEBUG_VALUE: h264_dec_decode_one_macroblock:active_pps_weighted_bipred_idc <- 0
	@DEBUG_VALUE: h264_dec_decode_one_macroblock:active_pps_weighted_pred_flag <- 0
	@DEBUG_VALUE: h264_dec_decode_one_macroblock:active_sps_chroma_format_idc <- 1
	@DEBUG_VALUE: h264_dec_decode_one_macroblock:dec_picture_ref_idx <- 0
	@DEBUG_VALUE: h264_dec_decode_one_macroblock:mb_nr <- 0
	@DEBUG_VALUE: h264_dec_decode_one_macroblock:bw_refframe <- -1
	@DEBUG_VALUE: h264_dec_decode_one_macroblock:fw_refframe <- -1
	@DEBUG_VALUE: h264_dec_decode_one_macroblock:j <- 0
	@DEBUG_VALUE: h264_dec_decode_one_macroblock:i <- 0
	@DEBUG_VALUE: h264_dec_decode_one_macroblock:bw_pred <- 0
	@DEBUG_VALUE: h264_dec_decode_one_macroblock:fw_pred <- 0
	@DEBUG_VALUE: h264_dec_decode_one_macroblock:fw_ref_idx <- -1
	@DEBUG_VALUE: h264_dec_decode_one_macroblock:bw_ref_idx <- -1
	@DEBUG_VALUE: h264_dec_decode_one_macroblock:mb_nr <- 0
	@DEBUG_VALUE: h264_dec_decode_one_macroblock:b4 <- $r10
	.loc	2 158 9 is_stmt 0               @ h264_dec/h264_dec.c:158:9
	cmp	r10, #4
	beq	.LBB2_4
.Ltmp48:
@ %bb.9:                                @ %for.body9
                                        @   in Loop: Header=BB2_8 Depth=3
	@DEBUG_VALUE: h264_dec_decode_one_macroblock:b4 <- $r10
	@DEBUG_VALUE: h264_dec_decode_one_macroblock:intra_prediction <- 0
	@DEBUG_VALUE: h264_dec_decode_one_macroblock:f2_x <- [DW_OP_plus_uconst 8] [$sp+0]
	@DEBUG_VALUE: h264_dec_decode_one_macroblock:f4 <- [DW_OP_plus_uconst 12] [$sp+0]
	@DEBUG_VALUE: h264_dec_decode_one_macroblock:f2_y <- [DW_OP_constu 60, DW_OP_minus] [$r11+0]
	@DEBUG_VALUE: h264_dec_decode_one_macroblock:f3 <- [DW_OP_plus_uconst 16] [$sp+0]
	@DEBUG_VALUE: h264_dec_decode_one_macroblock:f1_x <- [DW_OP_constu 56, DW_OP_minus] [$r11+0]
	@DEBUG_VALUE: h264_dec_decode_one_macroblock:f1_y <- [DW_OP_constu 36, DW_OP_minus] [$r11+0]
	@DEBUG_VALUE: h264_dec_decode_one_macroblock:img <- [DW_OP_constu 32, DW_OP_minus] [$r11+0]
	@DEBUG_VALUE: h264_dec_decode_one_macroblock:residue_transform_flag <- 0
	@DEBUG_VALUE: h264_dec_decode_one_macroblock:curr_mb_field <- 0
	@DEBUG_VALUE: h264_dec_decode_one_macroblock:direct_pdir <- -1
	@DEBUG_VALUE: h264_dec_decode_one_macroblock:max_y_cr <- 287
	@DEBUG_VALUE: h264_dec_decode_one_macroblock:smb <- 0
	@DEBUG_VALUE: h264_dec_decode_one_macroblock:active_pps_weighted_bipred_idc <- 0
	@DEBUG_VALUE: h264_dec_decode_one_macroblock:active_pps_weighted_pred_flag <- 0
	@DEBUG_VALUE: h264_dec_decode_one_macroblock:active_sps_chroma_format_idc <- 1
	@DEBUG_VALUE: h264_dec_decode_one_macroblock:dec_picture_ref_idx <- 0
	@DEBUG_VALUE: h264_dec_decode_one_macroblock:mb_nr <- 0
	@DEBUG_VALUE: h264_dec_decode_one_macroblock:bw_ref_idx <- -1
	@DEBUG_VALUE: h264_dec_decode_one_macroblock:fw_ref_idx <- -1
	@DEBUG_VALUE: h264_dec_decode_one_macroblock:bw_refframe <- -1
	@DEBUG_VALUE: h264_dec_decode_one_macroblock:fw_refframe <- -1
	@DEBUG_VALUE: h264_dec_decode_one_macroblock:fw_pred <- 0
	@DEBUG_VALUE: h264_dec_decode_one_macroblock:bw_pred <- 0
	@DEBUG_VALUE: h264_dec_decode_one_macroblock:j <- 0
	@DEBUG_VALUE: h264_dec_decode_one_macroblock:i <- 0
	@DEBUG_VALUE: h264_dec_decode_one_macroblock:jj <- 0
	@DEBUG_VALUE: h264_dec_decode_one_macroblock:j4 <- undef
	@DEBUG_VALUE: h264_dec_decode_one_macroblock:i4 <- undef
	@DEBUG_VALUE: h264_dec_decode_one_macroblock:joff <- 0
	@DEBUG_VALUE: h264_dec_decode_one_macroblock:ioff <- 0
	@DEBUG_VALUE: h264_dec_decode_one_macroblock:mv_mode <- 1
	@DEBUG_VALUE: h264_dec_decode_one_macroblock:pred_dir <- -1
	.loc	2 0 9                           @ h264_dec/h264_dec.c:0:9
	ldr	r1, [r11, #-32]                 @ 4-byte Reload
	str	r10, [sp, #32]                  @ 4-byte Spill
.Ltmp49:
	.loc	2 160 21 is_stmt 1              @ h264_dec/h264_dec.c:160:21
	ldr	r0, [r1, #12]
	str	r0, [sp, #48]                   @ 4-byte Spill
	.loc	2 162 21                        @ h264_dec/h264_dec.c:162:21
	ldr	r0, [r1, #16]
.Ltmp50:
	.loc	2 171 21                        @ h264_dec/h264_dec.c:171:21
	mul	r1, r9, r0
	str	r0, [sp, #44]                   @ 4-byte Spill
	add	r0, r0, #1
	str	r1, [sp, #28]                   @ 4-byte Spill
	mul	r1, r9, r0
	sub	r0, r1, #1
	mov	r1, #0
	str	r0, [sp, #24]                   @ 4-byte Spill
	ldr	r0, .LCPI2_0
	str	r0, [sp, #20]                   @ 4-byte Spill
	b	.LBB2_11
.Ltmp51:
.LBB2_10:                               @ %for.end
                                        @   in Loop: Header=BB2_11 Depth=4
	@DEBUG_VALUE: h264_dec_decode_one_macroblock:jf <- [DW_OP_plus_uconst 36] [$sp+0]
	@DEBUG_VALUE: h264_dec_decode_one_macroblock:jj <- [DW_OP_plus_uconst 4] [$sp+0]
	@DEBUG_VALUE: h264_dec_decode_one_macroblock:pred_dir <- -1
	@DEBUG_VALUE: h264_dec_decode_one_macroblock:mv_mode <- 1
	@DEBUG_VALUE: h264_dec_decode_one_macroblock:ioff <- 0
	@DEBUG_VALUE: h264_dec_decode_one_macroblock:joff <- 0
	@DEBUG_VALUE: h264_dec_decode_one_macroblock:intra_prediction <- 0
	@DEBUG_VALUE: h264_dec_decode_one_macroblock:f2_x <- [DW_OP_plus_uconst 8] [$sp+0]
	@DEBUG_VALUE: h264_dec_decode_one_macroblock:f4 <- [DW_OP_plus_uconst 12] [$sp+0]
	@DEBUG_VALUE: h264_dec_decode_one_macroblock:f2_y <- [DW_OP_constu 60, DW_OP_minus] [$r11+0]
	@DEBUG_VALUE: h264_dec_decode_one_macroblock:f3 <- [DW_OP_plus_uconst 16] [$sp+0]
	@DEBUG_VALUE: h264_dec_decode_one_macroblock:f1_x <- [DW_OP_constu 56, DW_OP_minus] [$r11+0]
	@DEBUG_VALUE: h264_dec_decode_one_macroblock:f1_y <- [DW_OP_constu 36, DW_OP_minus] [$r11+0]
	@DEBUG_VALUE: h264_dec_decode_one_macroblock:img <- [DW_OP_constu 32, DW_OP_minus] [$r11+0]
	@DEBUG_VALUE: h264_dec_decode_one_macroblock:residue_transform_flag <- 0
	@DEBUG_VALUE: h264_dec_decode_one_macroblock:curr_mb_field <- 0
	@DEBUG_VALUE: h264_dec_decode_one_macroblock:direct_pdir <- -1
	@DEBUG_VALUE: h264_dec_decode_one_macroblock:max_y_cr <- 287
	@DEBUG_VALUE: h264_dec_decode_one_macroblock:smb <- 0
	@DEBUG_VALUE: h264_dec_decode_one_macroblock:active_pps_weighted_bipred_idc <- 0
	@DEBUG_VALUE: h264_dec_decode_one_macroblock:active_pps_weighted_pred_flag <- 0
	@DEBUG_VALUE: h264_dec_decode_one_macroblock:active_sps_chroma_format_idc <- 1
	@DEBUG_VALUE: h264_dec_decode_one_macroblock:dec_picture_ref_idx <- 0
	@DEBUG_VALUE: h264_dec_decode_one_macroblock:mb_nr <- 0
	@DEBUG_VALUE: h264_dec_decode_one_macroblock:bw_ref_idx <- -1
	@DEBUG_VALUE: h264_dec_decode_one_macroblock:fw_ref_idx <- -1
	@DEBUG_VALUE: h264_dec_decode_one_macroblock:bw_refframe <- -1
	@DEBUG_VALUE: h264_dec_decode_one_macroblock:fw_refframe <- -1
	@DEBUG_VALUE: h264_dec_decode_one_macroblock:fw_pred <- 0
	@DEBUG_VALUE: h264_dec_decode_one_macroblock:bw_pred <- 0
	@DEBUG_VALUE: h264_dec_decode_one_macroblock:j <- 0
	@DEBUG_VALUE: h264_dec_decode_one_macroblock:i <- 0
	.loc	2 171 15 is_stmt 0              @ h264_dec/h264_dec.c:171:15
	ldr	r0, [sp, #20]                   @ 4-byte Reload
	ldr	r1, [sp, #4]                    @ 4-byte Reload
.Ltmp52:
	@DEBUG_VALUE: h264_dec_decode_one_macroblock:jj <- $r1
	@DEBUG_VALUE: h264_dec_decode_one_macroblock:jj <- $r1
	add	r0, r0, #1
	.loc	2 171 39                        @ h264_dec/h264_dec.c:171:39
	add	r1, r1, #1
.Ltmp53:
	@DEBUG_VALUE: h264_dec_decode_one_macroblock:jj <- $r1
	.loc	2 0 39                          @ h264_dec/h264_dec.c:0:39
	str	r0, [sp, #20]                   @ 4-byte Spill
.Ltmp54:
.LBB2_11:                               @ %for.cond13
                                        @   Parent Loop BB2_2 Depth=1
                                        @     Parent Loop BB2_5 Depth=2
                                        @       Parent Loop BB2_8 Depth=3
                                        @ =>      This Loop Header: Depth=4
                                        @           Child Loop BB2_14 Depth 5
	@DEBUG_VALUE: h264_dec_decode_one_macroblock:pred_dir <- -1
	@DEBUG_VALUE: h264_dec_decode_one_macroblock:mv_mode <- 1
	@DEBUG_VALUE: h264_dec_decode_one_macroblock:ioff <- 0
	@DEBUG_VALUE: h264_dec_decode_one_macroblock:joff <- 0
	@DEBUG_VALUE: h264_dec_decode_one_macroblock:intra_prediction <- 0
	@DEBUG_VALUE: h264_dec_decode_one_macroblock:f2_x <- [DW_OP_plus_uconst 8] [$sp+0]
	@DEBUG_VALUE: h264_dec_decode_one_macroblock:f4 <- [DW_OP_plus_uconst 12] [$sp+0]
	@DEBUG_VALUE: h264_dec_decode_one_macroblock:f2_y <- [DW_OP_constu 60, DW_OP_minus] [$r11+0]
	@DEBUG_VALUE: h264_dec_decode_one_macroblock:f3 <- [DW_OP_plus_uconst 16] [$sp+0]
	@DEBUG_VALUE: h264_dec_decode_one_macroblock:f1_x <- [DW_OP_constu 56, DW_OP_minus] [$r11+0]
	@DEBUG_VALUE: h264_dec_decode_one_macroblock:f1_y <- [DW_OP_constu 36, DW_OP_minus] [$r11+0]
	@DEBUG_VALUE: h264_dec_decode_one_macroblock:img <- [DW_OP_constu 32, DW_OP_minus] [$r11+0]
	@DEBUG_VALUE: h264_dec_decode_one_macroblock:residue_transform_flag <- 0
	@DEBUG_VALUE: h264_dec_decode_one_macroblock:curr_mb_field <- 0
	@DEBUG_VALUE: h264_dec_decode_one_macroblock:direct_pdir <- -1
	@DEBUG_VALUE: h264_dec_decode_one_macroblock:max_y_cr <- 287
	@DEBUG_VALUE: h264_dec_decode_one_macroblock:smb <- 0
	@DEBUG_VALUE: h264_dec_decode_one_macroblock:active_pps_weighted_bipred_idc <- 0
	@DEBUG_VALUE: h264_dec_decode_one_macroblock:active_pps_weighted_pred_flag <- 0
	@DEBUG_VALUE: h264_dec_decode_one_macroblock:active_sps_chroma_format_idc <- 1
	@DEBUG_VALUE: h264_dec_decode_one_macroblock:dec_picture_ref_idx <- 0
	@DEBUG_VALUE: h264_dec_decode_one_macroblock:mb_nr <- 0
	@DEBUG_VALUE: h264_dec_decode_one_macroblock:bw_ref_idx <- -1
	@DEBUG_VALUE: h264_dec_decode_one_macroblock:fw_ref_idx <- -1
	@DEBUG_VALUE: h264_dec_decode_one_macroblock:bw_refframe <- -1
	@DEBUG_VALUE: h264_dec_decode_one_macroblock:fw_refframe <- -1
	@DEBUG_VALUE: h264_dec_decode_one_macroblock:fw_pred <- 0
	@DEBUG_VALUE: h264_dec_decode_one_macroblock:bw_pred <- 0
	@DEBUG_VALUE: h264_dec_decode_one_macroblock:j <- 0
	@DEBUG_VALUE: h264_dec_decode_one_macroblock:i <- 0
	@DEBUG_VALUE: h264_dec_decode_one_macroblock:jj <- $r1
	@DEBUG_VALUE: h264_dec_decode_one_macroblock:mb_nr <- 0
	.loc	2 171 15                        @ h264_dec/h264_dec.c:171:15
	cmp	r1, #4
	beq	.LBB2_45
.Ltmp55:
@ %bb.12:                               @ %for.body15
                                        @   in Loop: Header=BB2_11 Depth=4
	@DEBUG_VALUE: h264_dec_decode_one_macroblock:jj <- $r1
	@DEBUG_VALUE: h264_dec_decode_one_macroblock:pred_dir <- -1
	@DEBUG_VALUE: h264_dec_decode_one_macroblock:mv_mode <- 1
	@DEBUG_VALUE: h264_dec_decode_one_macroblock:ioff <- 0
	@DEBUG_VALUE: h264_dec_decode_one_macroblock:joff <- 0
	@DEBUG_VALUE: h264_dec_decode_one_macroblock:intra_prediction <- 0
	@DEBUG_VALUE: h264_dec_decode_one_macroblock:f2_x <- [DW_OP_plus_uconst 8] [$sp+0]
	@DEBUG_VALUE: h264_dec_decode_one_macroblock:f4 <- [DW_OP_plus_uconst 12] [$sp+0]
	@DEBUG_VALUE: h264_dec_decode_one_macroblock:f2_y <- [DW_OP_constu 60, DW_OP_minus] [$r11+0]
	@DEBUG_VALUE: h264_dec_decode_one_macroblock:f3 <- [DW_OP_plus_uconst 16] [$sp+0]
	@DEBUG_VALUE: h264_dec_decode_one_macroblock:f1_x <- [DW_OP_constu 56, DW_OP_minus] [$r11+0]
	@DEBUG_VALUE: h264_dec_decode_one_macroblock:f1_y <- [DW_OP_constu 36, DW_OP_minus] [$r11+0]
	@DEBUG_VALUE: h264_dec_decode_one_macroblock:img <- [DW_OP_constu 32, DW_OP_minus] [$r11+0]
	@DEBUG_VALUE: h264_dec_decode_one_macroblock:residue_transform_flag <- 0
	@DEBUG_VALUE: h264_dec_decode_one_macroblock:curr_mb_field <- 0
	@DEBUG_VALUE: h264_dec_decode_one_macroblock:direct_pdir <- -1
	@DEBUG_VALUE: h264_dec_decode_one_macroblock:max_y_cr <- 287
	@DEBUG_VALUE: h264_dec_decode_one_macroblock:smb <- 0
	@DEBUG_VALUE: h264_dec_decode_one_macroblock:active_pps_weighted_bipred_idc <- 0
	@DEBUG_VALUE: h264_dec_decode_one_macroblock:active_pps_weighted_pred_flag <- 0
	@DEBUG_VALUE: h264_dec_decode_one_macroblock:active_sps_chroma_format_idc <- 1
	@DEBUG_VALUE: h264_dec_decode_one_macroblock:dec_picture_ref_idx <- 0
	@DEBUG_VALUE: h264_dec_decode_one_macroblock:mb_nr <- 0
	@DEBUG_VALUE: h264_dec_decode_one_macroblock:bw_ref_idx <- -1
	@DEBUG_VALUE: h264_dec_decode_one_macroblock:fw_ref_idx <- -1
	@DEBUG_VALUE: h264_dec_decode_one_macroblock:bw_refframe <- -1
	@DEBUG_VALUE: h264_dec_decode_one_macroblock:fw_refframe <- -1
	@DEBUG_VALUE: h264_dec_decode_one_macroblock:fw_pred <- 0
	@DEBUG_VALUE: h264_dec_decode_one_macroblock:bw_pred <- 0
	@DEBUG_VALUE: h264_dec_decode_one_macroblock:j <- 0
	@DEBUG_VALUE: h264_dec_decode_one_macroblock:i <- 0
	.loc	2 172 29 is_stmt 1              @ h264_dec/h264_dec.c:172:29
	ldr	r0, [sp, #48]                   @ 4-byte Reload
	str	r1, [sp, #4]                    @ 4-byte Spill
.Ltmp56:
	@DEBUG_VALUE: h264_dec_decode_one_macroblock:jj <- [DW_OP_plus_uconst 4] [$sp+0]
	@DEBUG_VALUE: h264_dec_decode_one_macroblock:jj <- [DW_OP_plus_uconst 4] [$sp+0]
	@DEBUG_VALUE: h264_dec_decode_one_macroblock:jj <- [DW_OP_plus_uconst 4] [$sp+0]
	add	r0, r0, r1
	.loc	2 172 45 is_stmt 0              @ h264_dec/h264_dec.c:172:45
	ldr	r1, [r11, #-32]                 @ 4-byte Reload
	str	r0, [sp, #40]                   @ 4-byte Spill
	ldr	r2, [r1, #552]
	.loc	2 172 58                        @ h264_dec/h264_dec.c:172:58
	asr	r1, r2, #31
	add	r1, r2, r1, lsr #30
	asr	r1, r1, #2
	.loc	2 172 36                        @ h264_dec/h264_dec.c:172:36
	bl	__divsi3
	.loc	2 172 66                        @ h264_dec/h264_dec.c:172:66
	asr	r1, r0, #31
	add	r1, r0, r1, lsr #26
	bic	r1, r1, #63
	sub	r0, r0, r1
.Ltmp57:
	@DEBUG_VALUE: h264_dec_decode_one_macroblock:jf <- $r0
	.loc	2 0 66                          @ h264_dec/h264_dec.c:0:66
	mov	r1, #0
	str	r0, [sp, #36]                   @ 4-byte Spill
.Ltmp58:
	@DEBUG_VALUE: h264_dec_decode_one_macroblock:jf <- [DW_OP_plus_uconst 36] [$sp+0]
	@DEBUG_VALUE: h264_dec_decode_one_macroblock:jf <- [DW_OP_plus_uconst 36] [$sp+0]
	@DEBUG_VALUE: h264_dec_decode_one_macroblock:jf <- [DW_OP_plus_uconst 36] [$sp+0]
	@DEBUG_VALUE: h264_dec_decode_one_macroblock:jf <- [DW_OP_plus_uconst 36] [$sp+0]
	mov	r0, #0
.Ltmp59:
	@DEBUG_VALUE: h264_dec_decode_one_macroblock:ii <- 0
	str	r0, [r11, #-40]                 @ 4-byte Spill
	ldr	r0, [sp, #44]                   @ 4-byte Reload
	b	.LBB2_14
.Ltmp60:
.LBB2_13:                               @ %if.end227
                                        @   in Loop: Header=BB2_14 Depth=5
	@DEBUG_VALUE: h264_dec_decode_one_macroblock:jf <- [DW_OP_plus_uconst 36] [$sp+0]
	@DEBUG_VALUE: h264_dec_decode_one_macroblock:jj <- [DW_OP_plus_uconst 4] [$sp+0]
	@DEBUG_VALUE: h264_dec_decode_one_macroblock:pred_dir <- -1
	@DEBUG_VALUE: h264_dec_decode_one_macroblock:mv_mode <- 1
	@DEBUG_VALUE: h264_dec_decode_one_macroblock:ioff <- 0
	@DEBUG_VALUE: h264_dec_decode_one_macroblock:joff <- 0
	@DEBUG_VALUE: h264_dec_decode_one_macroblock:intra_prediction <- 0
	@DEBUG_VALUE: h264_dec_decode_one_macroblock:f2_x <- [DW_OP_plus_uconst 8] [$sp+0]
	@DEBUG_VALUE: h264_dec_decode_one_macroblock:f4 <- [DW_OP_plus_uconst 12] [$sp+0]
	@DEBUG_VALUE: h264_dec_decode_one_macroblock:f2_y <- [DW_OP_constu 60, DW_OP_minus] [$r11+0]
	@DEBUG_VALUE: h264_dec_decode_one_macroblock:f3 <- [DW_OP_plus_uconst 16] [$sp+0]
	@DEBUG_VALUE: h264_dec_decode_one_macroblock:f1_x <- [DW_OP_constu 56, DW_OP_minus] [$r11+0]
	@DEBUG_VALUE: h264_dec_decode_one_macroblock:f1_y <- [DW_OP_constu 36, DW_OP_minus] [$r11+0]
	@DEBUG_VALUE: h264_dec_decode_one_macroblock:img <- [DW_OP_constu 32, DW_OP_minus] [$r11+0]
	@DEBUG_VALUE: h264_dec_decode_one_macroblock:residue_transform_flag <- 0
	@DEBUG_VALUE: h264_dec_decode_one_macroblock:curr_mb_field <- 0
	@DEBUG_VALUE: h264_dec_decode_one_macroblock:direct_pdir <- -1
	@DEBUG_VALUE: h264_dec_decode_one_macroblock:max_y_cr <- 287
	@DEBUG_VALUE: h264_dec_decode_one_macroblock:smb <- 0
	@DEBUG_VALUE: h264_dec_decode_one_macroblock:active_pps_weighted_bipred_idc <- 0
	@DEBUG_VALUE: h264_dec_decode_one_macroblock:active_pps_weighted_pred_flag <- 0
	@DEBUG_VALUE: h264_dec_decode_one_macroblock:active_sps_chroma_format_idc <- 1
	@DEBUG_VALUE: h264_dec_decode_one_macroblock:dec_picture_ref_idx <- 0
	@DEBUG_VALUE: h264_dec_decode_one_macroblock:mb_nr <- 0
	@DEBUG_VALUE: h264_dec_decode_one_macroblock:bw_ref_idx <- -1
	@DEBUG_VALUE: h264_dec_decode_one_macroblock:fw_ref_idx <- -1
	@DEBUG_VALUE: h264_dec_decode_one_macroblock:bw_refframe <- -1
	@DEBUG_VALUE: h264_dec_decode_one_macroblock:fw_refframe <- -1
	@DEBUG_VALUE: h264_dec_decode_one_macroblock:fw_pred <- 0
	@DEBUG_VALUE: h264_dec_decode_one_macroblock:bw_pred <- 0
	@DEBUG_VALUE: h264_dec_decode_one_macroblock:j <- 0
	@DEBUG_VALUE: h264_dec_decode_one_macroblock:i <- 0
	@DEBUG_VALUE: h264_dec_decode_one_macroblock:ii <- [DW_OP_LLVM_arg 0, DW_OP_LLVM_arg 0, DW_OP_minus, DW_OP_consts 1, DW_OP_plus, DW_OP_stack_value] undef
	ldr	r9, [r11, #-56]                 @ 4-byte Reload
.Ltmp61:
	.loc	2 174 17 is_stmt 1              @ h264_dec/h264_dec.c:174:17
	ldr	r0, [r11, #-40]                 @ 4-byte Reload
	ldr	r1, [r11, #-44]                 @ 4-byte Reload
	ldr	r8, [r11, #-52]                 @ 4-byte Reload
	ldr	r10, [sp, #32]                  @ 4-byte Reload
	add	r0, r0, r9
	add	r1, r1, #7
	str	r0, [r11, #-40]                 @ 4-byte Spill
	ldr	r0, [r11, #-48]                 @ 4-byte Reload
	add	r0, r0, #1
.Ltmp62:
.LBB2_14:                               @ %for.cond20
                                        @   Parent Loop BB2_2 Depth=1
                                        @     Parent Loop BB2_5 Depth=2
                                        @       Parent Loop BB2_8 Depth=3
                                        @         Parent Loop BB2_11 Depth=4
                                        @ =>        This Inner Loop Header: Depth=5
	@DEBUG_VALUE: h264_dec_decode_one_macroblock:jf <- [DW_OP_plus_uconst 36] [$sp+0]
	@DEBUG_VALUE: h264_dec_decode_one_macroblock:jj <- [DW_OP_plus_uconst 4] [$sp+0]
	@DEBUG_VALUE: h264_dec_decode_one_macroblock:pred_dir <- -1
	@DEBUG_VALUE: h264_dec_decode_one_macroblock:mv_mode <- 1
	@DEBUG_VALUE: h264_dec_decode_one_macroblock:ioff <- 0
	@DEBUG_VALUE: h264_dec_decode_one_macroblock:joff <- 0
	@DEBUG_VALUE: h264_dec_decode_one_macroblock:intra_prediction <- 0
	@DEBUG_VALUE: h264_dec_decode_one_macroblock:f2_x <- [DW_OP_plus_uconst 8] [$sp+0]
	@DEBUG_VALUE: h264_dec_decode_one_macroblock:f4 <- [DW_OP_plus_uconst 12] [$sp+0]
	@DEBUG_VALUE: h264_dec_decode_one_macroblock:f2_y <- [DW_OP_constu 60, DW_OP_minus] [$r11+0]
	@DEBUG_VALUE: h264_dec_decode_one_macroblock:f3 <- [DW_OP_plus_uconst 16] [$sp+0]
	@DEBUG_VALUE: h264_dec_decode_one_macroblock:f1_x <- [DW_OP_constu 56, DW_OP_minus] [$r11+0]
	@DEBUG_VALUE: h264_dec_decode_one_macroblock:f1_y <- [DW_OP_constu 36, DW_OP_minus] [$r11+0]
	@DEBUG_VALUE: h264_dec_decode_one_macroblock:img <- [DW_OP_constu 32, DW_OP_minus] [$r11+0]
	@DEBUG_VALUE: h264_dec_decode_one_macroblock:residue_transform_flag <- 0
	@DEBUG_VALUE: h264_dec_decode_one_macroblock:curr_mb_field <- 0
	@DEBUG_VALUE: h264_dec_decode_one_macroblock:direct_pdir <- -1
	@DEBUG_VALUE: h264_dec_decode_one_macroblock:max_y_cr <- 287
	@DEBUG_VALUE: h264_dec_decode_one_macroblock:smb <- 0
	@DEBUG_VALUE: h264_dec_decode_one_macroblock:active_pps_weighted_bipred_idc <- 0
	@DEBUG_VALUE: h264_dec_decode_one_macroblock:active_pps_weighted_pred_flag <- 0
	@DEBUG_VALUE: h264_dec_decode_one_macroblock:active_sps_chroma_format_idc <- 1
	@DEBUG_VALUE: h264_dec_decode_one_macroblock:dec_picture_ref_idx <- 0
	@DEBUG_VALUE: h264_dec_decode_one_macroblock:mb_nr <- 0
	@DEBUG_VALUE: h264_dec_decode_one_macroblock:bw_ref_idx <- -1
	@DEBUG_VALUE: h264_dec_decode_one_macroblock:fw_ref_idx <- -1
	@DEBUG_VALUE: h264_dec_decode_one_macroblock:bw_refframe <- -1
	@DEBUG_VALUE: h264_dec_decode_one_macroblock:fw_refframe <- -1
	@DEBUG_VALUE: h264_dec_decode_one_macroblock:fw_pred <- 0
	@DEBUG_VALUE: h264_dec_decode_one_macroblock:bw_pred <- 0
	@DEBUG_VALUE: h264_dec_decode_one_macroblock:j <- 0
	@DEBUG_VALUE: h264_dec_decode_one_macroblock:i <- 0
	@DEBUG_VALUE: h264_dec_decode_one_macroblock:ii <- [DW_OP_LLVM_arg 0, DW_OP_LLVM_arg 0, DW_OP_minus, DW_OP_stack_value] undef
	@DEBUG_VALUE: h264_dec_decode_one_macroblock:mb_nr <- 0
	.loc	2 174 17 is_stmt 0              @ h264_dec/h264_dec.c:174:17
	cmp	r1, #28
	beq	.LBB2_10
.Ltmp63:
@ %bb.15:                               @ %for.body22
                                        @   in Loop: Header=BB2_14 Depth=5
	@DEBUG_VALUE: h264_dec_decode_one_macroblock:jf <- [DW_OP_plus_uconst 36] [$sp+0]
	@DEBUG_VALUE: h264_dec_decode_one_macroblock:jj <- [DW_OP_plus_uconst 4] [$sp+0]
	@DEBUG_VALUE: h264_dec_decode_one_macroblock:pred_dir <- -1
	@DEBUG_VALUE: h264_dec_decode_one_macroblock:mv_mode <- 1
	@DEBUG_VALUE: h264_dec_decode_one_macroblock:ioff <- 0
	@DEBUG_VALUE: h264_dec_decode_one_macroblock:joff <- 0
	@DEBUG_VALUE: h264_dec_decode_one_macroblock:intra_prediction <- 0
	@DEBUG_VALUE: h264_dec_decode_one_macroblock:f2_x <- [DW_OP_plus_uconst 8] [$sp+0]
	@DEBUG_VALUE: h264_dec_decode_one_macroblock:f4 <- [DW_OP_plus_uconst 12] [$sp+0]
	@DEBUG_VALUE: h264_dec_decode_one_macroblock:f2_y <- [DW_OP_constu 60, DW_OP_minus] [$r11+0]
	@DEBUG_VALUE: h264_dec_decode_one_macroblock:f3 <- [DW_OP_plus_uconst 16] [$sp+0]
	@DEBUG_VALUE: h264_dec_decode_one_macroblock:f1_x <- [DW_OP_constu 56, DW_OP_minus] [$r11+0]
	@DEBUG_VALUE: h264_dec_decode_one_macroblock:f1_y <- [DW_OP_constu 36, DW_OP_minus] [$r11+0]
	@DEBUG_VALUE: h264_dec_decode_one_macroblock:img <- [DW_OP_constu 32, DW_OP_minus] [$r11+0]
	@DEBUG_VALUE: h264_dec_decode_one_macroblock:residue_transform_flag <- 0
	@DEBUG_VALUE: h264_dec_decode_one_macroblock:curr_mb_field <- 0
	@DEBUG_VALUE: h264_dec_decode_one_macroblock:direct_pdir <- -1
	@DEBUG_VALUE: h264_dec_decode_one_macroblock:max_y_cr <- 287
	@DEBUG_VALUE: h264_dec_decode_one_macroblock:smb <- 0
	@DEBUG_VALUE: h264_dec_decode_one_macroblock:active_pps_weighted_bipred_idc <- 0
	@DEBUG_VALUE: h264_dec_decode_one_macroblock:active_pps_weighted_pred_flag <- 0
	@DEBUG_VALUE: h264_dec_decode_one_macroblock:active_sps_chroma_format_idc <- 1
	@DEBUG_VALUE: h264_dec_decode_one_macroblock:dec_picture_ref_idx <- 0
	@DEBUG_VALUE: h264_dec_decode_one_macroblock:mb_nr <- 0
	@DEBUG_VALUE: h264_dec_decode_one_macroblock:bw_ref_idx <- -1
	@DEBUG_VALUE: h264_dec_decode_one_macroblock:fw_ref_idx <- -1
	@DEBUG_VALUE: h264_dec_decode_one_macroblock:bw_refframe <- -1
	@DEBUG_VALUE: h264_dec_decode_one_macroblock:fw_refframe <- -1
	@DEBUG_VALUE: h264_dec_decode_one_macroblock:fw_pred <- 0
	@DEBUG_VALUE: h264_dec_decode_one_macroblock:bw_pred <- 0
	@DEBUG_VALUE: h264_dec_decode_one_macroblock:j <- 0
	@DEBUG_VALUE: h264_dec_decode_one_macroblock:i <- 0
	.loc	2 0 17                          @ h264_dec/h264_dec.c:0:17
	ldr	r4, [r11, #-32]                 @ 4-byte Reload
	str	r1, [r11, #-44]                 @ 4-byte Spill
	mov	r8, r7
	str	r0, [r11, #-48]                 @ 4-byte Spill
.Ltmp64:
	.loc	2 175 48 is_stmt 1              @ h264_dec/h264_dec.c:175:48
	ldr	r2, [r4, #548]
	.loc	2 175 61 is_stmt 0              @ h264_dec/h264_dec.c:175:61
	asr	r1, r2, #31
	add	r1, r2, r1, lsr #30
	asr	r1, r1, #2
	.loc	2 175 39                        @ h264_dec/h264_dec.c:175:39
	bl	__divsi3
	.loc	2 175 69                        @ h264_dec/h264_dec.c:175:69
	asr	r1, r0, #31
	.loc	2 176 45 is_stmt 1              @ h264_dec/h264_dec.c:176:45
	ldr	r2, .LCPI2_1
	.loc	2 175 69                        @ h264_dec/h264_dec.c:175:69
	add	r1, r0, r1, lsr #26
	bic	r1, r1, #63
	sub	r0, r0, r1
.Ltmp65:
	@DEBUG_VALUE: h264_dec_decode_one_macroblock:ifx <- $r0
	.loc	2 176 45                        @ h264_dec/h264_dec.c:176:45
	ldr	r1, [sp, #36]                   @ 4-byte Reload
	lsl	r0, r0, #1
.Ltmp66:
	add	r1, r1, r1, lsl #6
	add	r1, r2, r1, lsl #1
	ldrsb	r5, [r1, r0]!
	.loc	2 178 24                        @ h264_dec/h264_dec.c:178:24
	ldr	r0, [sp, #28]                   @ 4-byte Reload
.Ltmp67:
	.loc	2 179 47                        @ h264_dec/h264_dec.c:179:47
	ldrsb	r6, [r1, #1]
.Ltmp68:
	@DEBUG_VALUE: h264_dec_decode_one_macroblock:j1 <- undef
	@DEBUG_VALUE: h264_dec_decode_one_macroblock:i1 <- undef
	.loc	2 178 24                        @ h264_dec/h264_dec.c:178:24
	ldr	r1, [r11, #-40]                 @ 4-byte Reload
	add	r0, r0, r1
	.loc	2 195 42                        @ h264_dec/h264_dec.c:195:42
	mov	r1, r9
	.loc	2 178 24                        @ h264_dec/h264_dec.c:178:24
	add	r7, r0, r5
	@DEBUG_VALUE: h264_dec_decode_one_macroblock:mb_nr <- 0
	.loc	2 195 42                        @ h264_dec/h264_dec.c:195:42
	mov	r0, r7
	bl	__divsi3
	.loc	2 195 56 is_stmt 0              @ h264_dec/h264_dec.c:195:56
	ldr	r1, [r4, #8]
	.loc	2 195 37                        @ h264_dec/h264_dec.c:195:37
	cmp	r0, r1
	bge	.LBB2_17
.Ltmp69:
@ %bb.16:                               @ %cond.false
                                        @   in Loop: Header=BB2_14 Depth=5
	@DEBUG_VALUE: h264_dec_decode_one_macroblock:jf <- [DW_OP_plus_uconst 36] [$sp+0]
	@DEBUG_VALUE: h264_dec_decode_one_macroblock:jj <- [DW_OP_plus_uconst 4] [$sp+0]
	@DEBUG_VALUE: h264_dec_decode_one_macroblock:pred_dir <- -1
	@DEBUG_VALUE: h264_dec_decode_one_macroblock:mv_mode <- 1
	@DEBUG_VALUE: h264_dec_decode_one_macroblock:ioff <- 0
	@DEBUG_VALUE: h264_dec_decode_one_macroblock:joff <- 0
	@DEBUG_VALUE: h264_dec_decode_one_macroblock:intra_prediction <- 0
	@DEBUG_VALUE: h264_dec_decode_one_macroblock:f2_x <- [DW_OP_plus_uconst 8] [$sp+0]
	@DEBUG_VALUE: h264_dec_decode_one_macroblock:f4 <- [DW_OP_plus_uconst 12] [$sp+0]
	@DEBUG_VALUE: h264_dec_decode_one_macroblock:f2_y <- [DW_OP_constu 60, DW_OP_minus] [$r11+0]
	@DEBUG_VALUE: h264_dec_decode_one_macroblock:f3 <- [DW_OP_plus_uconst 16] [$sp+0]
	@DEBUG_VALUE: h264_dec_decode_one_macroblock:f1_x <- [DW_OP_constu 56, DW_OP_minus] [$r11+0]
	@DEBUG_VALUE: h264_dec_decode_one_macroblock:f1_y <- [DW_OP_constu 36, DW_OP_minus] [$r11+0]
	@DEBUG_VALUE: h264_dec_decode_one_macroblock:img <- [DW_OP_constu 32, DW_OP_minus] [$r11+0]
	@DEBUG_VALUE: h264_dec_decode_one_macroblock:residue_transform_flag <- 0
	@DEBUG_VALUE: h264_dec_decode_one_macroblock:curr_mb_field <- 0
	@DEBUG_VALUE: h264_dec_decode_one_macroblock:direct_pdir <- -1
	@DEBUG_VALUE: h264_dec_decode_one_macroblock:max_y_cr <- 287
	@DEBUG_VALUE: h264_dec_decode_one_macroblock:smb <- 0
	@DEBUG_VALUE: h264_dec_decode_one_macroblock:active_pps_weighted_bipred_idc <- 0
	@DEBUG_VALUE: h264_dec_decode_one_macroblock:active_pps_weighted_pred_flag <- 0
	@DEBUG_VALUE: h264_dec_decode_one_macroblock:active_sps_chroma_format_idc <- 1
	@DEBUG_VALUE: h264_dec_decode_one_macroblock:dec_picture_ref_idx <- 0
	@DEBUG_VALUE: h264_dec_decode_one_macroblock:mb_nr <- 0
	@DEBUG_VALUE: h264_dec_decode_one_macroblock:bw_ref_idx <- -1
	@DEBUG_VALUE: h264_dec_decode_one_macroblock:fw_ref_idx <- -1
	@DEBUG_VALUE: h264_dec_decode_one_macroblock:bw_refframe <- -1
	@DEBUG_VALUE: h264_dec_decode_one_macroblock:fw_refframe <- -1
	@DEBUG_VALUE: h264_dec_decode_one_macroblock:fw_pred <- 0
	@DEBUG_VALUE: h264_dec_decode_one_macroblock:bw_pred <- 0
	@DEBUG_VALUE: h264_dec_decode_one_macroblock:j <- 0
	@DEBUG_VALUE: h264_dec_decode_one_macroblock:i <- 0
	.loc	2 196 60 is_stmt 1              @ h264_dec/h264_dec.c:196:60
	mov	r0, r7
	mov	r1, r9
	bl	__divsi3
	b	.LBB2_18
.Ltmp70:
.LBB2_17:                               @ %cond.true
                                        @   in Loop: Header=BB2_14 Depth=5
	@DEBUG_VALUE: h264_dec_decode_one_macroblock:jf <- [DW_OP_plus_uconst 36] [$sp+0]
	@DEBUG_VALUE: h264_dec_decode_one_macroblock:jj <- [DW_OP_plus_uconst 4] [$sp+0]
	@DEBUG_VALUE: h264_dec_decode_one_macroblock:pred_dir <- -1
	@DEBUG_VALUE: h264_dec_decode_one_macroblock:mv_mode <- 1
	@DEBUG_VALUE: h264_dec_decode_one_macroblock:ioff <- 0
	@DEBUG_VALUE: h264_dec_decode_one_macroblock:joff <- 0
	@DEBUG_VALUE: h264_dec_decode_one_macroblock:intra_prediction <- 0
	@DEBUG_VALUE: h264_dec_decode_one_macroblock:f2_x <- [DW_OP_plus_uconst 8] [$sp+0]
	@DEBUG_VALUE: h264_dec_decode_one_macroblock:f4 <- [DW_OP_plus_uconst 12] [$sp+0]
	@DEBUG_VALUE: h264_dec_decode_one_macroblock:f2_y <- [DW_OP_constu 60, DW_OP_minus] [$r11+0]
	@DEBUG_VALUE: h264_dec_decode_one_macroblock:f3 <- [DW_OP_plus_uconst 16] [$sp+0]
	@DEBUG_VALUE: h264_dec_decode_one_macroblock:f1_x <- [DW_OP_constu 56, DW_OP_minus] [$r11+0]
	@DEBUG_VALUE: h264_dec_decode_one_macroblock:f1_y <- [DW_OP_constu 36, DW_OP_minus] [$r11+0]
	@DEBUG_VALUE: h264_dec_decode_one_macroblock:img <- [DW_OP_constu 32, DW_OP_minus] [$r11+0]
	@DEBUG_VALUE: h264_dec_decode_one_macroblock:residue_transform_flag <- 0
	@DEBUG_VALUE: h264_dec_decode_one_macroblock:curr_mb_field <- 0
	@DEBUG_VALUE: h264_dec_decode_one_macroblock:direct_pdir <- -1
	@DEBUG_VALUE: h264_dec_decode_one_macroblock:max_y_cr <- 287
	@DEBUG_VALUE: h264_dec_decode_one_macroblock:smb <- 0
	@DEBUG_VALUE: h264_dec_decode_one_macroblock:active_pps_weighted_bipred_idc <- 0
	@DEBUG_VALUE: h264_dec_decode_one_macroblock:active_pps_weighted_pred_flag <- 0
	@DEBUG_VALUE: h264_dec_decode_one_macroblock:active_sps_chroma_format_idc <- 1
	@DEBUG_VALUE: h264_dec_decode_one_macroblock:dec_picture_ref_idx <- 0
	@DEBUG_VALUE: h264_dec_decode_one_macroblock:mb_nr <- 0
	@DEBUG_VALUE: h264_dec_decode_one_macroblock:bw_ref_idx <- -1
	@DEBUG_VALUE: h264_dec_decode_one_macroblock:fw_ref_idx <- -1
	@DEBUG_VALUE: h264_dec_decode_one_macroblock:bw_refframe <- -1
	@DEBUG_VALUE: h264_dec_decode_one_macroblock:fw_refframe <- -1
	@DEBUG_VALUE: h264_dec_decode_one_macroblock:fw_pred <- 0
	@DEBUG_VALUE: h264_dec_decode_one_macroblock:bw_pred <- 0
	@DEBUG_VALUE: h264_dec_decode_one_macroblock:j <- 0
	@DEBUG_VALUE: h264_dec_decode_one_macroblock:i <- 0
	.loc	2 196 42 is_stmt 0              @ h264_dec/h264_dec.c:196:42
	ldr	r0, [r11, #-32]                 @ 4-byte Reload
	ldr	r0, [r0, #8]
	.loc	2 196 51                        @ h264_dec/h264_dec.c:196:51
	sub	r0, r0, #1
.Ltmp71:
.LBB2_18:                               @ %cond.end
                                        @   in Loop: Header=BB2_14 Depth=5
	@DEBUG_VALUE: h264_dec_decode_one_macroblock:jf <- [DW_OP_plus_uconst 36] [$sp+0]
	@DEBUG_VALUE: h264_dec_decode_one_macroblock:jj <- [DW_OP_plus_uconst 4] [$sp+0]
	@DEBUG_VALUE: h264_dec_decode_one_macroblock:pred_dir <- -1
	@DEBUG_VALUE: h264_dec_decode_one_macroblock:mv_mode <- 1
	@DEBUG_VALUE: h264_dec_decode_one_macroblock:ioff <- 0
	@DEBUG_VALUE: h264_dec_decode_one_macroblock:joff <- 0
	@DEBUG_VALUE: h264_dec_decode_one_macroblock:intra_prediction <- 0
	@DEBUG_VALUE: h264_dec_decode_one_macroblock:f2_x <- [DW_OP_plus_uconst 8] [$sp+0]
	@DEBUG_VALUE: h264_dec_decode_one_macroblock:f4 <- [DW_OP_plus_uconst 12] [$sp+0]
	@DEBUG_VALUE: h264_dec_decode_one_macroblock:f2_y <- [DW_OP_constu 60, DW_OP_minus] [$r11+0]
	@DEBUG_VALUE: h264_dec_decode_one_macroblock:f3 <- [DW_OP_plus_uconst 16] [$sp+0]
	@DEBUG_VALUE: h264_dec_decode_one_macroblock:f1_x <- [DW_OP_constu 56, DW_OP_minus] [$r11+0]
	@DEBUG_VALUE: h264_dec_decode_one_macroblock:f1_y <- [DW_OP_constu 36, DW_OP_minus] [$r11+0]
	@DEBUG_VALUE: h264_dec_decode_one_macroblock:img <- [DW_OP_constu 32, DW_OP_minus] [$r11+0]
	@DEBUG_VALUE: h264_dec_decode_one_macroblock:residue_transform_flag <- 0
	@DEBUG_VALUE: h264_dec_decode_one_macroblock:curr_mb_field <- 0
	@DEBUG_VALUE: h264_dec_decode_one_macroblock:direct_pdir <- -1
	@DEBUG_VALUE: h264_dec_decode_one_macroblock:max_y_cr <- 287
	@DEBUG_VALUE: h264_dec_decode_one_macroblock:smb <- 0
	@DEBUG_VALUE: h264_dec_decode_one_macroblock:active_pps_weighted_bipred_idc <- 0
	@DEBUG_VALUE: h264_dec_decode_one_macroblock:active_pps_weighted_pred_flag <- 0
	@DEBUG_VALUE: h264_dec_decode_one_macroblock:active_sps_chroma_format_idc <- 1
	@DEBUG_VALUE: h264_dec_decode_one_macroblock:dec_picture_ref_idx <- 0
	@DEBUG_VALUE: h264_dec_decode_one_macroblock:mb_nr <- 0
	@DEBUG_VALUE: h264_dec_decode_one_macroblock:bw_ref_idx <- -1
	@DEBUG_VALUE: h264_dec_decode_one_macroblock:fw_ref_idx <- -1
	@DEBUG_VALUE: h264_dec_decode_one_macroblock:bw_refframe <- -1
	@DEBUG_VALUE: h264_dec_decode_one_macroblock:fw_refframe <- -1
	@DEBUG_VALUE: h264_dec_decode_one_macroblock:fw_pred <- 0
	@DEBUG_VALUE: h264_dec_decode_one_macroblock:bw_pred <- 0
	@DEBUG_VALUE: h264_dec_decode_one_macroblock:j <- 0
	@DEBUG_VALUE: h264_dec_decode_one_macroblock:i <- 0
	@DEBUG_VALUE: h264_dec_decode_one_macroblock:j1 <- undef
	.loc	2 195 29 is_stmt 1              @ h264_dec/h264_dec.c:195:29
	cmp	r0, #1
	str	r7, [sp, #64]                   @ 4-byte Spill
	blt	.LBB2_21
.Ltmp72:
@ %bb.19:                               @ %cond.true85
                                        @   in Loop: Header=BB2_14 Depth=5
	@DEBUG_VALUE: h264_dec_decode_one_macroblock:jf <- [DW_OP_plus_uconst 36] [$sp+0]
	@DEBUG_VALUE: h264_dec_decode_one_macroblock:jj <- [DW_OP_plus_uconst 4] [$sp+0]
	@DEBUG_VALUE: h264_dec_decode_one_macroblock:pred_dir <- -1
	@DEBUG_VALUE: h264_dec_decode_one_macroblock:mv_mode <- 1
	@DEBUG_VALUE: h264_dec_decode_one_macroblock:ioff <- 0
	@DEBUG_VALUE: h264_dec_decode_one_macroblock:joff <- 0
	@DEBUG_VALUE: h264_dec_decode_one_macroblock:intra_prediction <- 0
	@DEBUG_VALUE: h264_dec_decode_one_macroblock:f2_x <- [DW_OP_plus_uconst 8] [$sp+0]
	@DEBUG_VALUE: h264_dec_decode_one_macroblock:f4 <- [DW_OP_plus_uconst 12] [$sp+0]
	@DEBUG_VALUE: h264_dec_decode_one_macroblock:f2_y <- [DW_OP_constu 60, DW_OP_minus] [$r11+0]
	@DEBUG_VALUE: h264_dec_decode_one_macroblock:f3 <- [DW_OP_plus_uconst 16] [$sp+0]
	@DEBUG_VALUE: h264_dec_decode_one_macroblock:f1_x <- [DW_OP_constu 56, DW_OP_minus] [$r11+0]
	@DEBUG_VALUE: h264_dec_decode_one_macroblock:f1_y <- [DW_OP_constu 36, DW_OP_minus] [$r11+0]
	@DEBUG_VALUE: h264_dec_decode_one_macroblock:img <- [DW_OP_constu 32, DW_OP_minus] [$r11+0]
	@DEBUG_VALUE: h264_dec_decode_one_macroblock:residue_transform_flag <- 0
	@DEBUG_VALUE: h264_dec_decode_one_macroblock:curr_mb_field <- 0
	@DEBUG_VALUE: h264_dec_decode_one_macroblock:direct_pdir <- -1
	@DEBUG_VALUE: h264_dec_decode_one_macroblock:max_y_cr <- 287
	@DEBUG_VALUE: h264_dec_decode_one_macroblock:smb <- 0
	@DEBUG_VALUE: h264_dec_decode_one_macroblock:active_pps_weighted_bipred_idc <- 0
	@DEBUG_VALUE: h264_dec_decode_one_macroblock:active_pps_weighted_pred_flag <- 0
	@DEBUG_VALUE: h264_dec_decode_one_macroblock:active_sps_chroma_format_idc <- 1
	@DEBUG_VALUE: h264_dec_decode_one_macroblock:dec_picture_ref_idx <- 0
	@DEBUG_VALUE: h264_dec_decode_one_macroblock:mb_nr <- 0
	@DEBUG_VALUE: h264_dec_decode_one_macroblock:bw_ref_idx <- -1
	@DEBUG_VALUE: h264_dec_decode_one_macroblock:fw_ref_idx <- -1
	@DEBUG_VALUE: h264_dec_decode_one_macroblock:bw_refframe <- -1
	@DEBUG_VALUE: h264_dec_decode_one_macroblock:fw_refframe <- -1
	@DEBUG_VALUE: h264_dec_decode_one_macroblock:fw_pred <- 0
	@DEBUG_VALUE: h264_dec_decode_one_macroblock:bw_pred <- 0
	@DEBUG_VALUE: h264_dec_decode_one_macroblock:j <- 0
	@DEBUG_VALUE: h264_dec_decode_one_macroblock:i <- 0
	.loc	2 197 36                        @ h264_dec/h264_dec.c:197:36
	mov	r0, r7
	mov	r1, r9
	bl	__divsi3
	.loc	2 197 50 is_stmt 0              @ h264_dec/h264_dec.c:197:50
	ldr	r1, [r11, #-32]                 @ 4-byte Reload
	ldr	r1, [r1, #8]
	.loc	2 197 31                        @ h264_dec/h264_dec.c:197:31
	cmp	r0, r1
	bge	.LBB2_22
.Ltmp73:
@ %bb.20:                               @ %cond.false94
                                        @   in Loop: Header=BB2_14 Depth=5
	@DEBUG_VALUE: h264_dec_decode_one_macroblock:jf <- [DW_OP_plus_uconst 36] [$sp+0]
	@DEBUG_VALUE: h264_dec_decode_one_macroblock:jj <- [DW_OP_plus_uconst 4] [$sp+0]
	@DEBUG_VALUE: h264_dec_decode_one_macroblock:pred_dir <- -1
	@DEBUG_VALUE: h264_dec_decode_one_macroblock:mv_mode <- 1
	@DEBUG_VALUE: h264_dec_decode_one_macroblock:ioff <- 0
	@DEBUG_VALUE: h264_dec_decode_one_macroblock:joff <- 0
	@DEBUG_VALUE: h264_dec_decode_one_macroblock:intra_prediction <- 0
	@DEBUG_VALUE: h264_dec_decode_one_macroblock:f2_x <- [DW_OP_plus_uconst 8] [$sp+0]
	@DEBUG_VALUE: h264_dec_decode_one_macroblock:f4 <- [DW_OP_plus_uconst 12] [$sp+0]
	@DEBUG_VALUE: h264_dec_decode_one_macroblock:f2_y <- [DW_OP_constu 60, DW_OP_minus] [$r11+0]
	@DEBUG_VALUE: h264_dec_decode_one_macroblock:f3 <- [DW_OP_plus_uconst 16] [$sp+0]
	@DEBUG_VALUE: h264_dec_decode_one_macroblock:f1_x <- [DW_OP_constu 56, DW_OP_minus] [$r11+0]
	@DEBUG_VALUE: h264_dec_decode_one_macroblock:f1_y <- [DW_OP_constu 36, DW_OP_minus] [$r11+0]
	@DEBUG_VALUE: h264_dec_decode_one_macroblock:img <- [DW_OP_constu 32, DW_OP_minus] [$r11+0]
	@DEBUG_VALUE: h264_dec_decode_one_macroblock:residue_transform_flag <- 0
	@DEBUG_VALUE: h264_dec_decode_one_macroblock:curr_mb_field <- 0
	@DEBUG_VALUE: h264_dec_decode_one_macroblock:direct_pdir <- -1
	@DEBUG_VALUE: h264_dec_decode_one_macroblock:max_y_cr <- 287
	@DEBUG_VALUE: h264_dec_decode_one_macroblock:smb <- 0
	@DEBUG_VALUE: h264_dec_decode_one_macroblock:active_pps_weighted_bipred_idc <- 0
	@DEBUG_VALUE: h264_dec_decode_one_macroblock:active_pps_weighted_pred_flag <- 0
	@DEBUG_VALUE: h264_dec_decode_one_macroblock:active_sps_chroma_format_idc <- 1
	@DEBUG_VALUE: h264_dec_decode_one_macroblock:dec_picture_ref_idx <- 0
	@DEBUG_VALUE: h264_dec_decode_one_macroblock:mb_nr <- 0
	@DEBUG_VALUE: h264_dec_decode_one_macroblock:bw_ref_idx <- -1
	@DEBUG_VALUE: h264_dec_decode_one_macroblock:fw_ref_idx <- -1
	@DEBUG_VALUE: h264_dec_decode_one_macroblock:bw_refframe <- -1
	@DEBUG_VALUE: h264_dec_decode_one_macroblock:fw_refframe <- -1
	@DEBUG_VALUE: h264_dec_decode_one_macroblock:fw_pred <- 0
	@DEBUG_VALUE: h264_dec_decode_one_macroblock:bw_pred <- 0
	@DEBUG_VALUE: h264_dec_decode_one_macroblock:j <- 0
	@DEBUG_VALUE: h264_dec_decode_one_macroblock:i <- 0
	.loc	2 198 54 is_stmt 1              @ h264_dec/h264_dec.c:198:54
	mov	r0, r7
	mov	r1, r9
	bl	__divsi3
	mov	r4, r0
	b	.LBB2_23
.Ltmp74:
.LBB2_21:                               @   in Loop: Header=BB2_14 Depth=5
	@DEBUG_VALUE: h264_dec_decode_one_macroblock:jf <- [DW_OP_plus_uconst 36] [$sp+0]
	@DEBUG_VALUE: h264_dec_decode_one_macroblock:jj <- [DW_OP_plus_uconst 4] [$sp+0]
	@DEBUG_VALUE: h264_dec_decode_one_macroblock:pred_dir <- -1
	@DEBUG_VALUE: h264_dec_decode_one_macroblock:mv_mode <- 1
	@DEBUG_VALUE: h264_dec_decode_one_macroblock:ioff <- 0
	@DEBUG_VALUE: h264_dec_decode_one_macroblock:joff <- 0
	@DEBUG_VALUE: h264_dec_decode_one_macroblock:intra_prediction <- 0
	@DEBUG_VALUE: h264_dec_decode_one_macroblock:f2_x <- [DW_OP_plus_uconst 8] [$sp+0]
	@DEBUG_VALUE: h264_dec_decode_one_macroblock:f4 <- [DW_OP_plus_uconst 12] [$sp+0]
	@DEBUG_VALUE: h264_dec_decode_one_macroblock:f2_y <- [DW_OP_constu 60, DW_OP_minus] [$r11+0]
	@DEBUG_VALUE: h264_dec_decode_one_macroblock:f3 <- [DW_OP_plus_uconst 16] [$sp+0]
	@DEBUG_VALUE: h264_dec_decode_one_macroblock:f1_x <- [DW_OP_constu 56, DW_OP_minus] [$r11+0]
	@DEBUG_VALUE: h264_dec_decode_one_macroblock:f1_y <- [DW_OP_constu 36, DW_OP_minus] [$r11+0]
	@DEBUG_VALUE: h264_dec_decode_one_macroblock:img <- [DW_OP_constu 32, DW_OP_minus] [$r11+0]
	@DEBUG_VALUE: h264_dec_decode_one_macroblock:residue_transform_flag <- 0
	@DEBUG_VALUE: h264_dec_decode_one_macroblock:curr_mb_field <- 0
	@DEBUG_VALUE: h264_dec_decode_one_macroblock:direct_pdir <- -1
	@DEBUG_VALUE: h264_dec_decode_one_macroblock:max_y_cr <- 287
	@DEBUG_VALUE: h264_dec_decode_one_macroblock:smb <- 0
	@DEBUG_VALUE: h264_dec_decode_one_macroblock:active_pps_weighted_bipred_idc <- 0
	@DEBUG_VALUE: h264_dec_decode_one_macroblock:active_pps_weighted_pred_flag <- 0
	@DEBUG_VALUE: h264_dec_decode_one_macroblock:active_sps_chroma_format_idc <- 1
	@DEBUG_VALUE: h264_dec_decode_one_macroblock:dec_picture_ref_idx <- 0
	@DEBUG_VALUE: h264_dec_decode_one_macroblock:mb_nr <- 0
	@DEBUG_VALUE: h264_dec_decode_one_macroblock:bw_ref_idx <- -1
	@DEBUG_VALUE: h264_dec_decode_one_macroblock:fw_ref_idx <- -1
	@DEBUG_VALUE: h264_dec_decode_one_macroblock:bw_refframe <- -1
	@DEBUG_VALUE: h264_dec_decode_one_macroblock:fw_refframe <- -1
	@DEBUG_VALUE: h264_dec_decode_one_macroblock:fw_pred <- 0
	@DEBUG_VALUE: h264_dec_decode_one_macroblock:bw_pred <- 0
	@DEBUG_VALUE: h264_dec_decode_one_macroblock:j <- 0
	@DEBUG_VALUE: h264_dec_decode_one_macroblock:i <- 0
	.loc	2 0 54 is_stmt 0                @ h264_dec/h264_dec.c:0:54
	mov	r4, #0
	b	.LBB2_23
.Ltmp75:
.LBB2_22:                               @ %cond.true91
                                        @   in Loop: Header=BB2_14 Depth=5
	@DEBUG_VALUE: h264_dec_decode_one_macroblock:jf <- [DW_OP_plus_uconst 36] [$sp+0]
	@DEBUG_VALUE: h264_dec_decode_one_macroblock:jj <- [DW_OP_plus_uconst 4] [$sp+0]
	@DEBUG_VALUE: h264_dec_decode_one_macroblock:pred_dir <- -1
	@DEBUG_VALUE: h264_dec_decode_one_macroblock:mv_mode <- 1
	@DEBUG_VALUE: h264_dec_decode_one_macroblock:ioff <- 0
	@DEBUG_VALUE: h264_dec_decode_one_macroblock:joff <- 0
	@DEBUG_VALUE: h264_dec_decode_one_macroblock:intra_prediction <- 0
	@DEBUG_VALUE: h264_dec_decode_one_macroblock:f2_x <- [DW_OP_plus_uconst 8] [$sp+0]
	@DEBUG_VALUE: h264_dec_decode_one_macroblock:f4 <- [DW_OP_plus_uconst 12] [$sp+0]
	@DEBUG_VALUE: h264_dec_decode_one_macroblock:f2_y <- [DW_OP_constu 60, DW_OP_minus] [$r11+0]
	@DEBUG_VALUE: h264_dec_decode_one_macroblock:f3 <- [DW_OP_plus_uconst 16] [$sp+0]
	@DEBUG_VALUE: h264_dec_decode_one_macroblock:f1_x <- [DW_OP_constu 56, DW_OP_minus] [$r11+0]
	@DEBUG_VALUE: h264_dec_decode_one_macroblock:f1_y <- [DW_OP_constu 36, DW_OP_minus] [$r11+0]
	@DEBUG_VALUE: h264_dec_decode_one_macroblock:img <- [DW_OP_constu 32, DW_OP_minus] [$r11+0]
	@DEBUG_VALUE: h264_dec_decode_one_macroblock:residue_transform_flag <- 0
	@DEBUG_VALUE: h264_dec_decode_one_macroblock:curr_mb_field <- 0
	@DEBUG_VALUE: h264_dec_decode_one_macroblock:direct_pdir <- -1
	@DEBUG_VALUE: h264_dec_decode_one_macroblock:max_y_cr <- 287
	@DEBUG_VALUE: h264_dec_decode_one_macroblock:smb <- 0
	@DEBUG_VALUE: h264_dec_decode_one_macroblock:active_pps_weighted_bipred_idc <- 0
	@DEBUG_VALUE: h264_dec_decode_one_macroblock:active_pps_weighted_pred_flag <- 0
	@DEBUG_VALUE: h264_dec_decode_one_macroblock:active_sps_chroma_format_idc <- 1
	@DEBUG_VALUE: h264_dec_decode_one_macroblock:dec_picture_ref_idx <- 0
	@DEBUG_VALUE: h264_dec_decode_one_macroblock:mb_nr <- 0
	@DEBUG_VALUE: h264_dec_decode_one_macroblock:bw_ref_idx <- -1
	@DEBUG_VALUE: h264_dec_decode_one_macroblock:fw_ref_idx <- -1
	@DEBUG_VALUE: h264_dec_decode_one_macroblock:bw_refframe <- -1
	@DEBUG_VALUE: h264_dec_decode_one_macroblock:fw_refframe <- -1
	@DEBUG_VALUE: h264_dec_decode_one_macroblock:fw_pred <- 0
	@DEBUG_VALUE: h264_dec_decode_one_macroblock:bw_pred <- 0
	@DEBUG_VALUE: h264_dec_decode_one_macroblock:j <- 0
	@DEBUG_VALUE: h264_dec_decode_one_macroblock:i <- 0
	.loc	2 198 36                        @ h264_dec/h264_dec.c:198:36
	ldr	r0, [r11, #-32]                 @ 4-byte Reload
	ldr	r0, [r0, #8]
	.loc	2 198 45                        @ h264_dec/h264_dec.c:198:45
	sub	r4, r0, #1
.Ltmp76:
.LBB2_23:                               @ %cond.end99
                                        @   in Loop: Header=BB2_14 Depth=5
	@DEBUG_VALUE: h264_dec_decode_one_macroblock:jf <- [DW_OP_plus_uconst 36] [$sp+0]
	@DEBUG_VALUE: h264_dec_decode_one_macroblock:jj <- [DW_OP_plus_uconst 4] [$sp+0]
	@DEBUG_VALUE: h264_dec_decode_one_macroblock:pred_dir <- -1
	@DEBUG_VALUE: h264_dec_decode_one_macroblock:mv_mode <- 1
	@DEBUG_VALUE: h264_dec_decode_one_macroblock:ioff <- 0
	@DEBUG_VALUE: h264_dec_decode_one_macroblock:joff <- 0
	@DEBUG_VALUE: h264_dec_decode_one_macroblock:intra_prediction <- 0
	@DEBUG_VALUE: h264_dec_decode_one_macroblock:f2_x <- [DW_OP_plus_uconst 8] [$sp+0]
	@DEBUG_VALUE: h264_dec_decode_one_macroblock:f4 <- [DW_OP_plus_uconst 12] [$sp+0]
	@DEBUG_VALUE: h264_dec_decode_one_macroblock:f2_y <- [DW_OP_constu 60, DW_OP_minus] [$r11+0]
	@DEBUG_VALUE: h264_dec_decode_one_macroblock:f3 <- [DW_OP_plus_uconst 16] [$sp+0]
	@DEBUG_VALUE: h264_dec_decode_one_macroblock:f1_x <- [DW_OP_constu 56, DW_OP_minus] [$r11+0]
	@DEBUG_VALUE: h264_dec_decode_one_macroblock:f1_y <- [DW_OP_constu 36, DW_OP_minus] [$r11+0]
	@DEBUG_VALUE: h264_dec_decode_one_macroblock:img <- [DW_OP_constu 32, DW_OP_minus] [$r11+0]
	@DEBUG_VALUE: h264_dec_decode_one_macroblock:residue_transform_flag <- 0
	@DEBUG_VALUE: h264_dec_decode_one_macroblock:curr_mb_field <- 0
	@DEBUG_VALUE: h264_dec_decode_one_macroblock:direct_pdir <- -1
	@DEBUG_VALUE: h264_dec_decode_one_macroblock:max_y_cr <- 287
	@DEBUG_VALUE: h264_dec_decode_one_macroblock:smb <- 0
	@DEBUG_VALUE: h264_dec_decode_one_macroblock:active_pps_weighted_bipred_idc <- 0
	@DEBUG_VALUE: h264_dec_decode_one_macroblock:active_pps_weighted_pred_flag <- 0
	@DEBUG_VALUE: h264_dec_decode_one_macroblock:active_sps_chroma_format_idc <- 1
	@DEBUG_VALUE: h264_dec_decode_one_macroblock:dec_picture_ref_idx <- 0
	@DEBUG_VALUE: h264_dec_decode_one_macroblock:mb_nr <- 0
	@DEBUG_VALUE: h264_dec_decode_one_macroblock:bw_ref_idx <- -1
	@DEBUG_VALUE: h264_dec_decode_one_macroblock:fw_ref_idx <- -1
	@DEBUG_VALUE: h264_dec_decode_one_macroblock:bw_refframe <- -1
	@DEBUG_VALUE: h264_dec_decode_one_macroblock:fw_refframe <- -1
	@DEBUG_VALUE: h264_dec_decode_one_macroblock:fw_pred <- 0
	@DEBUG_VALUE: h264_dec_decode_one_macroblock:bw_pred <- 0
	@DEBUG_VALUE: h264_dec_decode_one_macroblock:j <- 0
	@DEBUG_VALUE: h264_dec_decode_one_macroblock:i <- 0
	.loc	2 0 45                          @ h264_dec/h264_dec.c:0:45
	ldr	r1, [r11, #-36]                 @ 4-byte Reload
	ldr	r0, [sp, #40]                   @ 4-byte Reload
	.loc	2 198 71                        @ h264_dec/h264_dec.c:198:71
	ldr	r2, .LCPI2_2
	mov	r7, r8
	mla	r8, r0, r1, r6
.Ltmp77:
	@DEBUG_VALUE: h264_dec_decode_one_macroblock:j1 <- $r8
	smull	r0, r6, r4, r2
.Ltmp78:
	@DEBUG_VALUE: h264_dec_decode_one_macroblock:ii0 <- undef
	.loc	2 199 42 is_stmt 1              @ h264_dec/h264_dec.c:199:42
	mov	r0, r8
	bl	__divsi3
	.loc	2 199 37 is_stmt 0              @ h264_dec/h264_dec.c:199:37
	cmp	r0, #288
	mov	r0, r7
	bge	.LBB2_25
.Ltmp79:
@ %bb.24:                               @ %cond.false106
                                        @   in Loop: Header=BB2_14 Depth=5
	@DEBUG_VALUE: h264_dec_decode_one_macroblock:j1 <- $r8
	@DEBUG_VALUE: h264_dec_decode_one_macroblock:jf <- [DW_OP_plus_uconst 36] [$sp+0]
	@DEBUG_VALUE: h264_dec_decode_one_macroblock:jj <- [DW_OP_plus_uconst 4] [$sp+0]
	@DEBUG_VALUE: h264_dec_decode_one_macroblock:pred_dir <- -1
	@DEBUG_VALUE: h264_dec_decode_one_macroblock:mv_mode <- 1
	@DEBUG_VALUE: h264_dec_decode_one_macroblock:ioff <- 0
	@DEBUG_VALUE: h264_dec_decode_one_macroblock:joff <- 0
	@DEBUG_VALUE: h264_dec_decode_one_macroblock:intra_prediction <- 0
	@DEBUG_VALUE: h264_dec_decode_one_macroblock:f2_x <- [DW_OP_plus_uconst 8] [$sp+0]
	@DEBUG_VALUE: h264_dec_decode_one_macroblock:f4 <- [DW_OP_plus_uconst 12] [$sp+0]
	@DEBUG_VALUE: h264_dec_decode_one_macroblock:f2_y <- [DW_OP_constu 60, DW_OP_minus] [$r11+0]
	@DEBUG_VALUE: h264_dec_decode_one_macroblock:f3 <- [DW_OP_plus_uconst 16] [$sp+0]
	@DEBUG_VALUE: h264_dec_decode_one_macroblock:f1_x <- [DW_OP_constu 56, DW_OP_minus] [$r11+0]
	@DEBUG_VALUE: h264_dec_decode_one_macroblock:f1_y <- [DW_OP_constu 36, DW_OP_minus] [$r11+0]
	@DEBUG_VALUE: h264_dec_decode_one_macroblock:img <- [DW_OP_constu 32, DW_OP_minus] [$r11+0]
	@DEBUG_VALUE: h264_dec_decode_one_macroblock:residue_transform_flag <- 0
	@DEBUG_VALUE: h264_dec_decode_one_macroblock:curr_mb_field <- 0
	@DEBUG_VALUE: h264_dec_decode_one_macroblock:direct_pdir <- -1
	@DEBUG_VALUE: h264_dec_decode_one_macroblock:max_y_cr <- 287
	@DEBUG_VALUE: h264_dec_decode_one_macroblock:smb <- 0
	@DEBUG_VALUE: h264_dec_decode_one_macroblock:active_pps_weighted_bipred_idc <- 0
	@DEBUG_VALUE: h264_dec_decode_one_macroblock:active_pps_weighted_pred_flag <- 0
	@DEBUG_VALUE: h264_dec_decode_one_macroblock:active_sps_chroma_format_idc <- 1
	@DEBUG_VALUE: h264_dec_decode_one_macroblock:dec_picture_ref_idx <- 0
	@DEBUG_VALUE: h264_dec_decode_one_macroblock:mb_nr <- 0
	@DEBUG_VALUE: h264_dec_decode_one_macroblock:bw_ref_idx <- -1
	@DEBUG_VALUE: h264_dec_decode_one_macroblock:fw_ref_idx <- -1
	@DEBUG_VALUE: h264_dec_decode_one_macroblock:bw_refframe <- -1
	@DEBUG_VALUE: h264_dec_decode_one_macroblock:fw_refframe <- -1
	@DEBUG_VALUE: h264_dec_decode_one_macroblock:fw_pred <- 0
	@DEBUG_VALUE: h264_dec_decode_one_macroblock:bw_pred <- 0
	@DEBUG_VALUE: h264_dec_decode_one_macroblock:j <- 0
	@DEBUG_VALUE: h264_dec_decode_one_macroblock:i <- 0
	.loc	2 200 51 is_stmt 1              @ h264_dec/h264_dec.c:200:51
	ldr	r1, [r11, #-36]                 @ 4-byte Reload
	mov	r0, r8
	bl	__divsi3
.Ltmp80:
.LBB2_25:                               @ %cond.end108
                                        @   in Loop: Header=BB2_14 Depth=5
	@DEBUG_VALUE: h264_dec_decode_one_macroblock:j1 <- $r8
	@DEBUG_VALUE: h264_dec_decode_one_macroblock:jf <- [DW_OP_plus_uconst 36] [$sp+0]
	@DEBUG_VALUE: h264_dec_decode_one_macroblock:jj <- [DW_OP_plus_uconst 4] [$sp+0]
	@DEBUG_VALUE: h264_dec_decode_one_macroblock:pred_dir <- -1
	@DEBUG_VALUE: h264_dec_decode_one_macroblock:mv_mode <- 1
	@DEBUG_VALUE: h264_dec_decode_one_macroblock:ioff <- 0
	@DEBUG_VALUE: h264_dec_decode_one_macroblock:joff <- 0
	@DEBUG_VALUE: h264_dec_decode_one_macroblock:intra_prediction <- 0
	@DEBUG_VALUE: h264_dec_decode_one_macroblock:f2_x <- [DW_OP_plus_uconst 8] [$sp+0]
	@DEBUG_VALUE: h264_dec_decode_one_macroblock:f4 <- [DW_OP_plus_uconst 12] [$sp+0]
	@DEBUG_VALUE: h264_dec_decode_one_macroblock:f2_y <- [DW_OP_constu 60, DW_OP_minus] [$r11+0]
	@DEBUG_VALUE: h264_dec_decode_one_macroblock:f3 <- [DW_OP_plus_uconst 16] [$sp+0]
	@DEBUG_VALUE: h264_dec_decode_one_macroblock:f1_x <- [DW_OP_constu 56, DW_OP_minus] [$r11+0]
	@DEBUG_VALUE: h264_dec_decode_one_macroblock:f1_y <- [DW_OP_constu 36, DW_OP_minus] [$r11+0]
	@DEBUG_VALUE: h264_dec_decode_one_macroblock:img <- [DW_OP_constu 32, DW_OP_minus] [$r11+0]
	@DEBUG_VALUE: h264_dec_decode_one_macroblock:residue_transform_flag <- 0
	@DEBUG_VALUE: h264_dec_decode_one_macroblock:curr_mb_field <- 0
	@DEBUG_VALUE: h264_dec_decode_one_macroblock:direct_pdir <- -1
	@DEBUG_VALUE: h264_dec_decode_one_macroblock:max_y_cr <- 287
	@DEBUG_VALUE: h264_dec_decode_one_macroblock:smb <- 0
	@DEBUG_VALUE: h264_dec_decode_one_macroblock:active_pps_weighted_bipred_idc <- 0
	@DEBUG_VALUE: h264_dec_decode_one_macroblock:active_pps_weighted_pred_flag <- 0
	@DEBUG_VALUE: h264_dec_decode_one_macroblock:active_sps_chroma_format_idc <- 1
	@DEBUG_VALUE: h264_dec_decode_one_macroblock:dec_picture_ref_idx <- 0
	@DEBUG_VALUE: h264_dec_decode_one_macroblock:mb_nr <- 0
	@DEBUG_VALUE: h264_dec_decode_one_macroblock:bw_ref_idx <- -1
	@DEBUG_VALUE: h264_dec_decode_one_macroblock:fw_ref_idx <- -1
	@DEBUG_VALUE: h264_dec_decode_one_macroblock:bw_refframe <- -1
	@DEBUG_VALUE: h264_dec_decode_one_macroblock:fw_refframe <- -1
	@DEBUG_VALUE: h264_dec_decode_one_macroblock:fw_pred <- 0
	@DEBUG_VALUE: h264_dec_decode_one_macroblock:bw_pred <- 0
	@DEBUG_VALUE: h264_dec_decode_one_macroblock:j <- 0
	@DEBUG_VALUE: h264_dec_decode_one_macroblock:i <- 0
	@DEBUG_VALUE: h264_dec_decode_one_macroblock:ii0 <- undef
	.loc	2 199 29                        @ h264_dec/h264_dec.c:199:29
	cmp	r0, #1
	blt	.LBB2_28
.Ltmp81:
@ %bb.26:                               @ %cond.true112
                                        @   in Loop: Header=BB2_14 Depth=5
	@DEBUG_VALUE: h264_dec_decode_one_macroblock:j1 <- $r8
	@DEBUG_VALUE: h264_dec_decode_one_macroblock:jf <- [DW_OP_plus_uconst 36] [$sp+0]
	@DEBUG_VALUE: h264_dec_decode_one_macroblock:jj <- [DW_OP_plus_uconst 4] [$sp+0]
	@DEBUG_VALUE: h264_dec_decode_one_macroblock:pred_dir <- -1
	@DEBUG_VALUE: h264_dec_decode_one_macroblock:mv_mode <- 1
	@DEBUG_VALUE: h264_dec_decode_one_macroblock:ioff <- 0
	@DEBUG_VALUE: h264_dec_decode_one_macroblock:joff <- 0
	@DEBUG_VALUE: h264_dec_decode_one_macroblock:intra_prediction <- 0
	@DEBUG_VALUE: h264_dec_decode_one_macroblock:f2_x <- [DW_OP_plus_uconst 8] [$sp+0]
	@DEBUG_VALUE: h264_dec_decode_one_macroblock:f4 <- [DW_OP_plus_uconst 12] [$sp+0]
	@DEBUG_VALUE: h264_dec_decode_one_macroblock:f2_y <- [DW_OP_constu 60, DW_OP_minus] [$r11+0]
	@DEBUG_VALUE: h264_dec_decode_one_macroblock:f3 <- [DW_OP_plus_uconst 16] [$sp+0]
	@DEBUG_VALUE: h264_dec_decode_one_macroblock:f1_x <- [DW_OP_constu 56, DW_OP_minus] [$r11+0]
	@DEBUG_VALUE: h264_dec_decode_one_macroblock:f1_y <- [DW_OP_constu 36, DW_OP_minus] [$r11+0]
	@DEBUG_VALUE: h264_dec_decode_one_macroblock:img <- [DW_OP_constu 32, DW_OP_minus] [$r11+0]
	@DEBUG_VALUE: h264_dec_decode_one_macroblock:residue_transform_flag <- 0
	@DEBUG_VALUE: h264_dec_decode_one_macroblock:curr_mb_field <- 0
	@DEBUG_VALUE: h264_dec_decode_one_macroblock:direct_pdir <- -1
	@DEBUG_VALUE: h264_dec_decode_one_macroblock:max_y_cr <- 287
	@DEBUG_VALUE: h264_dec_decode_one_macroblock:smb <- 0
	@DEBUG_VALUE: h264_dec_decode_one_macroblock:active_pps_weighted_bipred_idc <- 0
	@DEBUG_VALUE: h264_dec_decode_one_macroblock:active_pps_weighted_pred_flag <- 0
	@DEBUG_VALUE: h264_dec_decode_one_macroblock:active_sps_chroma_format_idc <- 1
	@DEBUG_VALUE: h264_dec_decode_one_macroblock:dec_picture_ref_idx <- 0
	@DEBUG_VALUE: h264_dec_decode_one_macroblock:mb_nr <- 0
	@DEBUG_VALUE: h264_dec_decode_one_macroblock:bw_ref_idx <- -1
	@DEBUG_VALUE: h264_dec_decode_one_macroblock:fw_ref_idx <- -1
	@DEBUG_VALUE: h264_dec_decode_one_macroblock:bw_refframe <- -1
	@DEBUG_VALUE: h264_dec_decode_one_macroblock:fw_refframe <- -1
	@DEBUG_VALUE: h264_dec_decode_one_macroblock:fw_pred <- 0
	@DEBUG_VALUE: h264_dec_decode_one_macroblock:bw_pred <- 0
	@DEBUG_VALUE: h264_dec_decode_one_macroblock:j <- 0
	@DEBUG_VALUE: h264_dec_decode_one_macroblock:i <- 0
	.loc	2 201 36                        @ h264_dec/h264_dec.c:201:36
	ldr	r1, [r11, #-36]                 @ 4-byte Reload
	mov	r0, r8
	bl	__divsi3
	.loc	2 201 31 is_stmt 0              @ h264_dec/h264_dec.c:201:31
	cmp	r0, #288
	mov	r10, r7
	bge	.LBB2_29
.Ltmp82:
@ %bb.27:                               @ %cond.false117
                                        @   in Loop: Header=BB2_14 Depth=5
	@DEBUG_VALUE: h264_dec_decode_one_macroblock:j1 <- $r8
	@DEBUG_VALUE: h264_dec_decode_one_macroblock:jf <- [DW_OP_plus_uconst 36] [$sp+0]
	@DEBUG_VALUE: h264_dec_decode_one_macroblock:jj <- [DW_OP_plus_uconst 4] [$sp+0]
	@DEBUG_VALUE: h264_dec_decode_one_macroblock:pred_dir <- -1
	@DEBUG_VALUE: h264_dec_decode_one_macroblock:mv_mode <- 1
	@DEBUG_VALUE: h264_dec_decode_one_macroblock:ioff <- 0
	@DEBUG_VALUE: h264_dec_decode_one_macroblock:joff <- 0
	@DEBUG_VALUE: h264_dec_decode_one_macroblock:intra_prediction <- 0
	@DEBUG_VALUE: h264_dec_decode_one_macroblock:f2_x <- [DW_OP_plus_uconst 8] [$sp+0]
	@DEBUG_VALUE: h264_dec_decode_one_macroblock:f4 <- [DW_OP_plus_uconst 12] [$sp+0]
	@DEBUG_VALUE: h264_dec_decode_one_macroblock:f2_y <- [DW_OP_constu 60, DW_OP_minus] [$r11+0]
	@DEBUG_VALUE: h264_dec_decode_one_macroblock:f3 <- [DW_OP_plus_uconst 16] [$sp+0]
	@DEBUG_VALUE: h264_dec_decode_one_macroblock:f1_x <- [DW_OP_constu 56, DW_OP_minus] [$r11+0]
	@DEBUG_VALUE: h264_dec_decode_one_macroblock:f1_y <- [DW_OP_constu 36, DW_OP_minus] [$r11+0]
	@DEBUG_VALUE: h264_dec_decode_one_macroblock:img <- [DW_OP_constu 32, DW_OP_minus] [$r11+0]
	@DEBUG_VALUE: h264_dec_decode_one_macroblock:residue_transform_flag <- 0
	@DEBUG_VALUE: h264_dec_decode_one_macroblock:curr_mb_field <- 0
	@DEBUG_VALUE: h264_dec_decode_one_macroblock:direct_pdir <- -1
	@DEBUG_VALUE: h264_dec_decode_one_macroblock:max_y_cr <- 287
	@DEBUG_VALUE: h264_dec_decode_one_macroblock:smb <- 0
	@DEBUG_VALUE: h264_dec_decode_one_macroblock:active_pps_weighted_bipred_idc <- 0
	@DEBUG_VALUE: h264_dec_decode_one_macroblock:active_pps_weighted_pred_flag <- 0
	@DEBUG_VALUE: h264_dec_decode_one_macroblock:active_sps_chroma_format_idc <- 1
	@DEBUG_VALUE: h264_dec_decode_one_macroblock:dec_picture_ref_idx <- 0
	@DEBUG_VALUE: h264_dec_decode_one_macroblock:mb_nr <- 0
	@DEBUG_VALUE: h264_dec_decode_one_macroblock:bw_ref_idx <- -1
	@DEBUG_VALUE: h264_dec_decode_one_macroblock:fw_ref_idx <- -1
	@DEBUG_VALUE: h264_dec_decode_one_macroblock:bw_refframe <- -1
	@DEBUG_VALUE: h264_dec_decode_one_macroblock:fw_refframe <- -1
	@DEBUG_VALUE: h264_dec_decode_one_macroblock:fw_pred <- 0
	@DEBUG_VALUE: h264_dec_decode_one_macroblock:bw_pred <- 0
	@DEBUG_VALUE: h264_dec_decode_one_macroblock:j <- 0
	@DEBUG_VALUE: h264_dec_decode_one_macroblock:i <- 0
	.loc	2 202 45 is_stmt 1              @ h264_dec/h264_dec.c:202:45
	ldr	r1, [r11, #-36]                 @ 4-byte Reload
	mov	r0, r8
	bl	__divsi3
	mov	r10, r0
	b	.LBB2_29
.Ltmp83:
.LBB2_28:                               @   in Loop: Header=BB2_14 Depth=5
	@DEBUG_VALUE: h264_dec_decode_one_macroblock:j1 <- $r8
	@DEBUG_VALUE: h264_dec_decode_one_macroblock:jf <- [DW_OP_plus_uconst 36] [$sp+0]
	@DEBUG_VALUE: h264_dec_decode_one_macroblock:jj <- [DW_OP_plus_uconst 4] [$sp+0]
	@DEBUG_VALUE: h264_dec_decode_one_macroblock:pred_dir <- -1
	@DEBUG_VALUE: h264_dec_decode_one_macroblock:mv_mode <- 1
	@DEBUG_VALUE: h264_dec_decode_one_macroblock:ioff <- 0
	@DEBUG_VALUE: h264_dec_decode_one_macroblock:joff <- 0
	@DEBUG_VALUE: h264_dec_decode_one_macroblock:intra_prediction <- 0
	@DEBUG_VALUE: h264_dec_decode_one_macroblock:f2_x <- [DW_OP_plus_uconst 8] [$sp+0]
	@DEBUG_VALUE: h264_dec_decode_one_macroblock:f4 <- [DW_OP_plus_uconst 12] [$sp+0]
	@DEBUG_VALUE: h264_dec_decode_one_macroblock:f2_y <- [DW_OP_constu 60, DW_OP_minus] [$r11+0]
	@DEBUG_VALUE: h264_dec_decode_one_macroblock:f3 <- [DW_OP_plus_uconst 16] [$sp+0]
	@DEBUG_VALUE: h264_dec_decode_one_macroblock:f1_x <- [DW_OP_constu 56, DW_OP_minus] [$r11+0]
	@DEBUG_VALUE: h264_dec_decode_one_macroblock:f1_y <- [DW_OP_constu 36, DW_OP_minus] [$r11+0]
	@DEBUG_VALUE: h264_dec_decode_one_macroblock:img <- [DW_OP_constu 32, DW_OP_minus] [$r11+0]
	@DEBUG_VALUE: h264_dec_decode_one_macroblock:residue_transform_flag <- 0
	@DEBUG_VALUE: h264_dec_decode_one_macroblock:curr_mb_field <- 0
	@DEBUG_VALUE: h264_dec_decode_one_macroblock:direct_pdir <- -1
	@DEBUG_VALUE: h264_dec_decode_one_macroblock:max_y_cr <- 287
	@DEBUG_VALUE: h264_dec_decode_one_macroblock:smb <- 0
	@DEBUG_VALUE: h264_dec_decode_one_macroblock:active_pps_weighted_bipred_idc <- 0
	@DEBUG_VALUE: h264_dec_decode_one_macroblock:active_pps_weighted_pred_flag <- 0
	@DEBUG_VALUE: h264_dec_decode_one_macroblock:active_sps_chroma_format_idc <- 1
	@DEBUG_VALUE: h264_dec_decode_one_macroblock:dec_picture_ref_idx <- 0
	@DEBUG_VALUE: h264_dec_decode_one_macroblock:mb_nr <- 0
	@DEBUG_VALUE: h264_dec_decode_one_macroblock:bw_ref_idx <- -1
	@DEBUG_VALUE: h264_dec_decode_one_macroblock:fw_ref_idx <- -1
	@DEBUG_VALUE: h264_dec_decode_one_macroblock:bw_refframe <- -1
	@DEBUG_VALUE: h264_dec_decode_one_macroblock:fw_refframe <- -1
	@DEBUG_VALUE: h264_dec_decode_one_macroblock:fw_pred <- 0
	@DEBUG_VALUE: h264_dec_decode_one_macroblock:bw_pred <- 0
	@DEBUG_VALUE: h264_dec_decode_one_macroblock:j <- 0
	@DEBUG_VALUE: h264_dec_decode_one_macroblock:i <- 0
	.loc	2 0 45 is_stmt 0                @ h264_dec/h264_dec.c:0:45
	mov	r10, #0
.Ltmp84:
.LBB2_29:                               @ %cond.end122
                                        @   in Loop: Header=BB2_14 Depth=5
	@DEBUG_VALUE: h264_dec_decode_one_macroblock:j1 <- $r8
	@DEBUG_VALUE: h264_dec_decode_one_macroblock:jf <- [DW_OP_plus_uconst 36] [$sp+0]
	@DEBUG_VALUE: h264_dec_decode_one_macroblock:jj <- [DW_OP_plus_uconst 4] [$sp+0]
	@DEBUG_VALUE: h264_dec_decode_one_macroblock:pred_dir <- -1
	@DEBUG_VALUE: h264_dec_decode_one_macroblock:mv_mode <- 1
	@DEBUG_VALUE: h264_dec_decode_one_macroblock:ioff <- 0
	@DEBUG_VALUE: h264_dec_decode_one_macroblock:joff <- 0
	@DEBUG_VALUE: h264_dec_decode_one_macroblock:intra_prediction <- 0
	@DEBUG_VALUE: h264_dec_decode_one_macroblock:f2_x <- [DW_OP_plus_uconst 8] [$sp+0]
	@DEBUG_VALUE: h264_dec_decode_one_macroblock:f4 <- [DW_OP_plus_uconst 12] [$sp+0]
	@DEBUG_VALUE: h264_dec_decode_one_macroblock:f2_y <- [DW_OP_constu 60, DW_OP_minus] [$r11+0]
	@DEBUG_VALUE: h264_dec_decode_one_macroblock:f3 <- [DW_OP_plus_uconst 16] [$sp+0]
	@DEBUG_VALUE: h264_dec_decode_one_macroblock:f1_x <- [DW_OP_constu 56, DW_OP_minus] [$r11+0]
	@DEBUG_VALUE: h264_dec_decode_one_macroblock:f1_y <- [DW_OP_constu 36, DW_OP_minus] [$r11+0]
	@DEBUG_VALUE: h264_dec_decode_one_macroblock:img <- [DW_OP_constu 32, DW_OP_minus] [$r11+0]
	@DEBUG_VALUE: h264_dec_decode_one_macroblock:residue_transform_flag <- 0
	@DEBUG_VALUE: h264_dec_decode_one_macroblock:curr_mb_field <- 0
	@DEBUG_VALUE: h264_dec_decode_one_macroblock:direct_pdir <- -1
	@DEBUG_VALUE: h264_dec_decode_one_macroblock:max_y_cr <- 287
	@DEBUG_VALUE: h264_dec_decode_one_macroblock:smb <- 0
	@DEBUG_VALUE: h264_dec_decode_one_macroblock:active_pps_weighted_bipred_idc <- 0
	@DEBUG_VALUE: h264_dec_decode_one_macroblock:active_pps_weighted_pred_flag <- 0
	@DEBUG_VALUE: h264_dec_decode_one_macroblock:active_sps_chroma_format_idc <- 1
	@DEBUG_VALUE: h264_dec_decode_one_macroblock:dec_picture_ref_idx <- 0
	@DEBUG_VALUE: h264_dec_decode_one_macroblock:mb_nr <- 0
	@DEBUG_VALUE: h264_dec_decode_one_macroblock:bw_ref_idx <- -1
	@DEBUG_VALUE: h264_dec_decode_one_macroblock:fw_ref_idx <- -1
	@DEBUG_VALUE: h264_dec_decode_one_macroblock:bw_refframe <- -1
	@DEBUG_VALUE: h264_dec_decode_one_macroblock:fw_refframe <- -1
	@DEBUG_VALUE: h264_dec_decode_one_macroblock:fw_pred <- 0
	@DEBUG_VALUE: h264_dec_decode_one_macroblock:bw_pred <- 0
	@DEBUG_VALUE: h264_dec_decode_one_macroblock:j <- 0
	@DEBUG_VALUE: h264_dec_decode_one_macroblock:i <- 0
	@DEBUG_VALUE: h264_dec_decode_one_macroblock:ii0 <- undef
	.loc	2 202 62                        @ h264_dec/h264_dec.c:202:62
	ldr	r1, .LCPI2_2
	smull	r0, r2, r10, r1
.Ltmp85:
	@DEBUG_VALUE: h264_dec_decode_one_macroblock:jj0 <- undef
	.loc	2 204 49 is_stmt 1              @ h264_dec/h264_dec.c:204:49
	ldr	r1, [r11, #-40]                 @ 4-byte Reload
	ldr	r0, [sp, #24]                   @ 4-byte Reload
	str	r2, [sp, #52]                   @ 4-byte Spill
	add	r0, r0, r1
	mov	r1, r9
	add	r5, r0, r5
	mov	r0, r5
	bl	__divsi3
	.loc	2 204 63 is_stmt 0              @ h264_dec/h264_dec.c:204:63
	ldr	r1, [r11, #-32]                 @ 4-byte Reload
	ldr	r1, [r1, #8]
	.loc	2 204 33                        @ h264_dec/h264_dec.c:204:33
	cmp	r0, r1
	bge	.LBB2_31
.Ltmp86:
@ %bb.30:                               @ %cond.false134
                                        @   in Loop: Header=BB2_14 Depth=5
	@DEBUG_VALUE: h264_dec_decode_one_macroblock:j1 <- $r8
	@DEBUG_VALUE: h264_dec_decode_one_macroblock:jf <- [DW_OP_plus_uconst 36] [$sp+0]
	@DEBUG_VALUE: h264_dec_decode_one_macroblock:jj <- [DW_OP_plus_uconst 4] [$sp+0]
	@DEBUG_VALUE: h264_dec_decode_one_macroblock:pred_dir <- -1
	@DEBUG_VALUE: h264_dec_decode_one_macroblock:mv_mode <- 1
	@DEBUG_VALUE: h264_dec_decode_one_macroblock:ioff <- 0
	@DEBUG_VALUE: h264_dec_decode_one_macroblock:joff <- 0
	@DEBUG_VALUE: h264_dec_decode_one_macroblock:intra_prediction <- 0
	@DEBUG_VALUE: h264_dec_decode_one_macroblock:f2_x <- [DW_OP_plus_uconst 8] [$sp+0]
	@DEBUG_VALUE: h264_dec_decode_one_macroblock:f4 <- [DW_OP_plus_uconst 12] [$sp+0]
	@DEBUG_VALUE: h264_dec_decode_one_macroblock:f2_y <- [DW_OP_constu 60, DW_OP_minus] [$r11+0]
	@DEBUG_VALUE: h264_dec_decode_one_macroblock:f3 <- [DW_OP_plus_uconst 16] [$sp+0]
	@DEBUG_VALUE: h264_dec_decode_one_macroblock:f1_x <- [DW_OP_constu 56, DW_OP_minus] [$r11+0]
	@DEBUG_VALUE: h264_dec_decode_one_macroblock:f1_y <- [DW_OP_constu 36, DW_OP_minus] [$r11+0]
	@DEBUG_VALUE: h264_dec_decode_one_macroblock:img <- [DW_OP_constu 32, DW_OP_minus] [$r11+0]
	@DEBUG_VALUE: h264_dec_decode_one_macroblock:residue_transform_flag <- 0
	@DEBUG_VALUE: h264_dec_decode_one_macroblock:curr_mb_field <- 0
	@DEBUG_VALUE: h264_dec_decode_one_macroblock:direct_pdir <- -1
	@DEBUG_VALUE: h264_dec_decode_one_macroblock:max_y_cr <- 287
	@DEBUG_VALUE: h264_dec_decode_one_macroblock:smb <- 0
	@DEBUG_VALUE: h264_dec_decode_one_macroblock:active_pps_weighted_bipred_idc <- 0
	@DEBUG_VALUE: h264_dec_decode_one_macroblock:active_pps_weighted_pred_flag <- 0
	@DEBUG_VALUE: h264_dec_decode_one_macroblock:active_sps_chroma_format_idc <- 1
	@DEBUG_VALUE: h264_dec_decode_one_macroblock:dec_picture_ref_idx <- 0
	@DEBUG_VALUE: h264_dec_decode_one_macroblock:mb_nr <- 0
	@DEBUG_VALUE: h264_dec_decode_one_macroblock:bw_ref_idx <- -1
	@DEBUG_VALUE: h264_dec_decode_one_macroblock:fw_ref_idx <- -1
	@DEBUG_VALUE: h264_dec_decode_one_macroblock:bw_refframe <- -1
	@DEBUG_VALUE: h264_dec_decode_one_macroblock:fw_refframe <- -1
	@DEBUG_VALUE: h264_dec_decode_one_macroblock:fw_pred <- 0
	@DEBUG_VALUE: h264_dec_decode_one_macroblock:bw_pred <- 0
	@DEBUG_VALUE: h264_dec_decode_one_macroblock:j <- 0
	@DEBUG_VALUE: h264_dec_decode_one_macroblock:i <- 0
	.loc	2 205 69 is_stmt 1              @ h264_dec/h264_dec.c:205:69
	mov	r0, r5
	mov	r1, r9
	bl	__divsi3
	b	.LBB2_32
.Ltmp87:
.LBB2_31:                               @ %cond.true131
                                        @   in Loop: Header=BB2_14 Depth=5
	@DEBUG_VALUE: h264_dec_decode_one_macroblock:j1 <- $r8
	@DEBUG_VALUE: h264_dec_decode_one_macroblock:jf <- [DW_OP_plus_uconst 36] [$sp+0]
	@DEBUG_VALUE: h264_dec_decode_one_macroblock:jj <- [DW_OP_plus_uconst 4] [$sp+0]
	@DEBUG_VALUE: h264_dec_decode_one_macroblock:pred_dir <- -1
	@DEBUG_VALUE: h264_dec_decode_one_macroblock:mv_mode <- 1
	@DEBUG_VALUE: h264_dec_decode_one_macroblock:ioff <- 0
	@DEBUG_VALUE: h264_dec_decode_one_macroblock:joff <- 0
	@DEBUG_VALUE: h264_dec_decode_one_macroblock:intra_prediction <- 0
	@DEBUG_VALUE: h264_dec_decode_one_macroblock:f2_x <- [DW_OP_plus_uconst 8] [$sp+0]
	@DEBUG_VALUE: h264_dec_decode_one_macroblock:f4 <- [DW_OP_plus_uconst 12] [$sp+0]
	@DEBUG_VALUE: h264_dec_decode_one_macroblock:f2_y <- [DW_OP_constu 60, DW_OP_minus] [$r11+0]
	@DEBUG_VALUE: h264_dec_decode_one_macroblock:f3 <- [DW_OP_plus_uconst 16] [$sp+0]
	@DEBUG_VALUE: h264_dec_decode_one_macroblock:f1_x <- [DW_OP_constu 56, DW_OP_minus] [$r11+0]
	@DEBUG_VALUE: h264_dec_decode_one_macroblock:f1_y <- [DW_OP_constu 36, DW_OP_minus] [$r11+0]
	@DEBUG_VALUE: h264_dec_decode_one_macroblock:img <- [DW_OP_constu 32, DW_OP_minus] [$r11+0]
	@DEBUG_VALUE: h264_dec_decode_one_macroblock:residue_transform_flag <- 0
	@DEBUG_VALUE: h264_dec_decode_one_macroblock:curr_mb_field <- 0
	@DEBUG_VALUE: h264_dec_decode_one_macroblock:direct_pdir <- -1
	@DEBUG_VALUE: h264_dec_decode_one_macroblock:max_y_cr <- 287
	@DEBUG_VALUE: h264_dec_decode_one_macroblock:smb <- 0
	@DEBUG_VALUE: h264_dec_decode_one_macroblock:active_pps_weighted_bipred_idc <- 0
	@DEBUG_VALUE: h264_dec_decode_one_macroblock:active_pps_weighted_pred_flag <- 0
	@DEBUG_VALUE: h264_dec_decode_one_macroblock:active_sps_chroma_format_idc <- 1
	@DEBUG_VALUE: h264_dec_decode_one_macroblock:dec_picture_ref_idx <- 0
	@DEBUG_VALUE: h264_dec_decode_one_macroblock:mb_nr <- 0
	@DEBUG_VALUE: h264_dec_decode_one_macroblock:bw_ref_idx <- -1
	@DEBUG_VALUE: h264_dec_decode_one_macroblock:fw_ref_idx <- -1
	@DEBUG_VALUE: h264_dec_decode_one_macroblock:bw_refframe <- -1
	@DEBUG_VALUE: h264_dec_decode_one_macroblock:fw_refframe <- -1
	@DEBUG_VALUE: h264_dec_decode_one_macroblock:fw_pred <- 0
	@DEBUG_VALUE: h264_dec_decode_one_macroblock:bw_pred <- 0
	@DEBUG_VALUE: h264_dec_decode_one_macroblock:j <- 0
	@DEBUG_VALUE: h264_dec_decode_one_macroblock:i <- 0
	.loc	2 205 40 is_stmt 0              @ h264_dec/h264_dec.c:205:40
	ldr	r0, [r11, #-32]                 @ 4-byte Reload
	ldr	r0, [r0, #8]
	.loc	2 205 49                        @ h264_dec/h264_dec.c:205:49
	sub	r0, r0, #1
.Ltmp88:
.LBB2_32:                               @ %cond.end137
                                        @   in Loop: Header=BB2_14 Depth=5
	@DEBUG_VALUE: h264_dec_decode_one_macroblock:j1 <- $r8
	@DEBUG_VALUE: h264_dec_decode_one_macroblock:jf <- [DW_OP_plus_uconst 36] [$sp+0]
	@DEBUG_VALUE: h264_dec_decode_one_macroblock:jj <- [DW_OP_plus_uconst 4] [$sp+0]
	@DEBUG_VALUE: h264_dec_decode_one_macroblock:pred_dir <- -1
	@DEBUG_VALUE: h264_dec_decode_one_macroblock:mv_mode <- 1
	@DEBUG_VALUE: h264_dec_decode_one_macroblock:ioff <- 0
	@DEBUG_VALUE: h264_dec_decode_one_macroblock:joff <- 0
	@DEBUG_VALUE: h264_dec_decode_one_macroblock:intra_prediction <- 0
	@DEBUG_VALUE: h264_dec_decode_one_macroblock:f2_x <- [DW_OP_plus_uconst 8] [$sp+0]
	@DEBUG_VALUE: h264_dec_decode_one_macroblock:f4 <- [DW_OP_plus_uconst 12] [$sp+0]
	@DEBUG_VALUE: h264_dec_decode_one_macroblock:f2_y <- [DW_OP_constu 60, DW_OP_minus] [$r11+0]
	@DEBUG_VALUE: h264_dec_decode_one_macroblock:f3 <- [DW_OP_plus_uconst 16] [$sp+0]
	@DEBUG_VALUE: h264_dec_decode_one_macroblock:f1_x <- [DW_OP_constu 56, DW_OP_minus] [$r11+0]
	@DEBUG_VALUE: h264_dec_decode_one_macroblock:f1_y <- [DW_OP_constu 36, DW_OP_minus] [$r11+0]
	@DEBUG_VALUE: h264_dec_decode_one_macroblock:img <- [DW_OP_constu 32, DW_OP_minus] [$r11+0]
	@DEBUG_VALUE: h264_dec_decode_one_macroblock:residue_transform_flag <- 0
	@DEBUG_VALUE: h264_dec_decode_one_macroblock:curr_mb_field <- 0
	@DEBUG_VALUE: h264_dec_decode_one_macroblock:direct_pdir <- -1
	@DEBUG_VALUE: h264_dec_decode_one_macroblock:max_y_cr <- 287
	@DEBUG_VALUE: h264_dec_decode_one_macroblock:smb <- 0
	@DEBUG_VALUE: h264_dec_decode_one_macroblock:active_pps_weighted_bipred_idc <- 0
	@DEBUG_VALUE: h264_dec_decode_one_macroblock:active_pps_weighted_pred_flag <- 0
	@DEBUG_VALUE: h264_dec_decode_one_macroblock:active_sps_chroma_format_idc <- 1
	@DEBUG_VALUE: h264_dec_decode_one_macroblock:dec_picture_ref_idx <- 0
	@DEBUG_VALUE: h264_dec_decode_one_macroblock:mb_nr <- 0
	@DEBUG_VALUE: h264_dec_decode_one_macroblock:bw_ref_idx <- -1
	@DEBUG_VALUE: h264_dec_decode_one_macroblock:fw_ref_idx <- -1
	@DEBUG_VALUE: h264_dec_decode_one_macroblock:bw_refframe <- -1
	@DEBUG_VALUE: h264_dec_decode_one_macroblock:fw_refframe <- -1
	@DEBUG_VALUE: h264_dec_decode_one_macroblock:fw_pred <- 0
	@DEBUG_VALUE: h264_dec_decode_one_macroblock:bw_pred <- 0
	@DEBUG_VALUE: h264_dec_decode_one_macroblock:j <- 0
	@DEBUG_VALUE: h264_dec_decode_one_macroblock:i <- 0
	@DEBUG_VALUE: h264_dec_decode_one_macroblock:ii0 <- undef
	@DEBUG_VALUE: h264_dec_decode_one_macroblock:jj0 <- undef
	.loc	2 203 29 is_stmt 1              @ h264_dec/h264_dec.c:203:29
	cmp	r0, #1
	str	r4, [sp, #60]                   @ 4-byte Spill
	str	r6, [sp, #56]                   @ 4-byte Spill
	blt	.LBB2_35
.Ltmp89:
@ %bb.33:                               @ %cond.true141
                                        @   in Loop: Header=BB2_14 Depth=5
	@DEBUG_VALUE: h264_dec_decode_one_macroblock:j1 <- $r8
	@DEBUG_VALUE: h264_dec_decode_one_macroblock:jf <- [DW_OP_plus_uconst 36] [$sp+0]
	@DEBUG_VALUE: h264_dec_decode_one_macroblock:jj <- [DW_OP_plus_uconst 4] [$sp+0]
	@DEBUG_VALUE: h264_dec_decode_one_macroblock:pred_dir <- -1
	@DEBUG_VALUE: h264_dec_decode_one_macroblock:mv_mode <- 1
	@DEBUG_VALUE: h264_dec_decode_one_macroblock:ioff <- 0
	@DEBUG_VALUE: h264_dec_decode_one_macroblock:joff <- 0
	@DEBUG_VALUE: h264_dec_decode_one_macroblock:intra_prediction <- 0
	@DEBUG_VALUE: h264_dec_decode_one_macroblock:f2_x <- [DW_OP_plus_uconst 8] [$sp+0]
	@DEBUG_VALUE: h264_dec_decode_one_macroblock:f4 <- [DW_OP_plus_uconst 12] [$sp+0]
	@DEBUG_VALUE: h264_dec_decode_one_macroblock:f2_y <- [DW_OP_constu 60, DW_OP_minus] [$r11+0]
	@DEBUG_VALUE: h264_dec_decode_one_macroblock:f3 <- [DW_OP_plus_uconst 16] [$sp+0]
	@DEBUG_VALUE: h264_dec_decode_one_macroblock:f1_x <- [DW_OP_constu 56, DW_OP_minus] [$r11+0]
	@DEBUG_VALUE: h264_dec_decode_one_macroblock:f1_y <- [DW_OP_constu 36, DW_OP_minus] [$r11+0]
	@DEBUG_VALUE: h264_dec_decode_one_macroblock:img <- [DW_OP_constu 32, DW_OP_minus] [$r11+0]
	@DEBUG_VALUE: h264_dec_decode_one_macroblock:residue_transform_flag <- 0
	@DEBUG_VALUE: h264_dec_decode_one_macroblock:curr_mb_field <- 0
	@DEBUG_VALUE: h264_dec_decode_one_macroblock:direct_pdir <- -1
	@DEBUG_VALUE: h264_dec_decode_one_macroblock:max_y_cr <- 287
	@DEBUG_VALUE: h264_dec_decode_one_macroblock:smb <- 0
	@DEBUG_VALUE: h264_dec_decode_one_macroblock:active_pps_weighted_bipred_idc <- 0
	@DEBUG_VALUE: h264_dec_decode_one_macroblock:active_pps_weighted_pred_flag <- 0
	@DEBUG_VALUE: h264_dec_decode_one_macroblock:active_sps_chroma_format_idc <- 1
	@DEBUG_VALUE: h264_dec_decode_one_macroblock:dec_picture_ref_idx <- 0
	@DEBUG_VALUE: h264_dec_decode_one_macroblock:mb_nr <- 0
	@DEBUG_VALUE: h264_dec_decode_one_macroblock:bw_ref_idx <- -1
	@DEBUG_VALUE: h264_dec_decode_one_macroblock:fw_ref_idx <- -1
	@DEBUG_VALUE: h264_dec_decode_one_macroblock:bw_refframe <- -1
	@DEBUG_VALUE: h264_dec_decode_one_macroblock:fw_refframe <- -1
	@DEBUG_VALUE: h264_dec_decode_one_macroblock:fw_pred <- 0
	@DEBUG_VALUE: h264_dec_decode_one_macroblock:bw_pred <- 0
	@DEBUG_VALUE: h264_dec_decode_one_macroblock:j <- 0
	@DEBUG_VALUE: h264_dec_decode_one_macroblock:i <- 0
	.loc	2 206 49                        @ h264_dec/h264_dec.c:206:49
	mov	r0, r5
	mov	r1, r9
	bl	__divsi3
	.loc	2 206 63 is_stmt 0              @ h264_dec/h264_dec.c:206:63
	ldr	r1, [r11, #-32]                 @ 4-byte Reload
	ldr	r1, [r1, #8]
	.loc	2 206 33                        @ h264_dec/h264_dec.c:206:33
	cmp	r0, r1
	bge	.LBB2_36
.Ltmp90:
@ %bb.34:                               @ %cond.false151
                                        @   in Loop: Header=BB2_14 Depth=5
	@DEBUG_VALUE: h264_dec_decode_one_macroblock:j1 <- $r8
	@DEBUG_VALUE: h264_dec_decode_one_macroblock:jf <- [DW_OP_plus_uconst 36] [$sp+0]
	@DEBUG_VALUE: h264_dec_decode_one_macroblock:jj <- [DW_OP_plus_uconst 4] [$sp+0]
	@DEBUG_VALUE: h264_dec_decode_one_macroblock:pred_dir <- -1
	@DEBUG_VALUE: h264_dec_decode_one_macroblock:mv_mode <- 1
	@DEBUG_VALUE: h264_dec_decode_one_macroblock:ioff <- 0
	@DEBUG_VALUE: h264_dec_decode_one_macroblock:joff <- 0
	@DEBUG_VALUE: h264_dec_decode_one_macroblock:intra_prediction <- 0
	@DEBUG_VALUE: h264_dec_decode_one_macroblock:f2_x <- [DW_OP_plus_uconst 8] [$sp+0]
	@DEBUG_VALUE: h264_dec_decode_one_macroblock:f4 <- [DW_OP_plus_uconst 12] [$sp+0]
	@DEBUG_VALUE: h264_dec_decode_one_macroblock:f2_y <- [DW_OP_constu 60, DW_OP_minus] [$r11+0]
	@DEBUG_VALUE: h264_dec_decode_one_macroblock:f3 <- [DW_OP_plus_uconst 16] [$sp+0]
	@DEBUG_VALUE: h264_dec_decode_one_macroblock:f1_x <- [DW_OP_constu 56, DW_OP_minus] [$r11+0]
	@DEBUG_VALUE: h264_dec_decode_one_macroblock:f1_y <- [DW_OP_constu 36, DW_OP_minus] [$r11+0]
	@DEBUG_VALUE: h264_dec_decode_one_macroblock:img <- [DW_OP_constu 32, DW_OP_minus] [$r11+0]
	@DEBUG_VALUE: h264_dec_decode_one_macroblock:residue_transform_flag <- 0
	@DEBUG_VALUE: h264_dec_decode_one_macroblock:curr_mb_field <- 0
	@DEBUG_VALUE: h264_dec_decode_one_macroblock:direct_pdir <- -1
	@DEBUG_VALUE: h264_dec_decode_one_macroblock:max_y_cr <- 287
	@DEBUG_VALUE: h264_dec_decode_one_macroblock:smb <- 0
	@DEBUG_VALUE: h264_dec_decode_one_macroblock:active_pps_weighted_bipred_idc <- 0
	@DEBUG_VALUE: h264_dec_decode_one_macroblock:active_pps_weighted_pred_flag <- 0
	@DEBUG_VALUE: h264_dec_decode_one_macroblock:active_sps_chroma_format_idc <- 1
	@DEBUG_VALUE: h264_dec_decode_one_macroblock:dec_picture_ref_idx <- 0
	@DEBUG_VALUE: h264_dec_decode_one_macroblock:mb_nr <- 0
	@DEBUG_VALUE: h264_dec_decode_one_macroblock:bw_ref_idx <- -1
	@DEBUG_VALUE: h264_dec_decode_one_macroblock:fw_ref_idx <- -1
	@DEBUG_VALUE: h264_dec_decode_one_macroblock:bw_refframe <- -1
	@DEBUG_VALUE: h264_dec_decode_one_macroblock:fw_refframe <- -1
	@DEBUG_VALUE: h264_dec_decode_one_macroblock:fw_pred <- 0
	@DEBUG_VALUE: h264_dec_decode_one_macroblock:bw_pred <- 0
	@DEBUG_VALUE: h264_dec_decode_one_macroblock:j <- 0
	@DEBUG_VALUE: h264_dec_decode_one_macroblock:i <- 0
	.loc	2 208 47 is_stmt 1              @ h264_dec/h264_dec.c:208:47
	mov	r0, r5
	mov	r1, r9
	bl	__divsi3
	mov	r5, r0
	b	.LBB2_37
.Ltmp91:
.LBB2_35:                               @   in Loop: Header=BB2_14 Depth=5
	@DEBUG_VALUE: h264_dec_decode_one_macroblock:j1 <- $r8
	@DEBUG_VALUE: h264_dec_decode_one_macroblock:jf <- [DW_OP_plus_uconst 36] [$sp+0]
	@DEBUG_VALUE: h264_dec_decode_one_macroblock:jj <- [DW_OP_plus_uconst 4] [$sp+0]
	@DEBUG_VALUE: h264_dec_decode_one_macroblock:pred_dir <- -1
	@DEBUG_VALUE: h264_dec_decode_one_macroblock:mv_mode <- 1
	@DEBUG_VALUE: h264_dec_decode_one_macroblock:ioff <- 0
	@DEBUG_VALUE: h264_dec_decode_one_macroblock:joff <- 0
	@DEBUG_VALUE: h264_dec_decode_one_macroblock:intra_prediction <- 0
	@DEBUG_VALUE: h264_dec_decode_one_macroblock:f2_x <- [DW_OP_plus_uconst 8] [$sp+0]
	@DEBUG_VALUE: h264_dec_decode_one_macroblock:f4 <- [DW_OP_plus_uconst 12] [$sp+0]
	@DEBUG_VALUE: h264_dec_decode_one_macroblock:f2_y <- [DW_OP_constu 60, DW_OP_minus] [$r11+0]
	@DEBUG_VALUE: h264_dec_decode_one_macroblock:f3 <- [DW_OP_plus_uconst 16] [$sp+0]
	@DEBUG_VALUE: h264_dec_decode_one_macroblock:f1_x <- [DW_OP_constu 56, DW_OP_minus] [$r11+0]
	@DEBUG_VALUE: h264_dec_decode_one_macroblock:f1_y <- [DW_OP_constu 36, DW_OP_minus] [$r11+0]
	@DEBUG_VALUE: h264_dec_decode_one_macroblock:img <- [DW_OP_constu 32, DW_OP_minus] [$r11+0]
	@DEBUG_VALUE: h264_dec_decode_one_macroblock:residue_transform_flag <- 0
	@DEBUG_VALUE: h264_dec_decode_one_macroblock:curr_mb_field <- 0
	@DEBUG_VALUE: h264_dec_decode_one_macroblock:direct_pdir <- -1
	@DEBUG_VALUE: h264_dec_decode_one_macroblock:max_y_cr <- 287
	@DEBUG_VALUE: h264_dec_decode_one_macroblock:smb <- 0
	@DEBUG_VALUE: h264_dec_decode_one_macroblock:active_pps_weighted_bipred_idc <- 0
	@DEBUG_VALUE: h264_dec_decode_one_macroblock:active_pps_weighted_pred_flag <- 0
	@DEBUG_VALUE: h264_dec_decode_one_macroblock:active_sps_chroma_format_idc <- 1
	@DEBUG_VALUE: h264_dec_decode_one_macroblock:dec_picture_ref_idx <- 0
	@DEBUG_VALUE: h264_dec_decode_one_macroblock:mb_nr <- 0
	@DEBUG_VALUE: h264_dec_decode_one_macroblock:bw_ref_idx <- -1
	@DEBUG_VALUE: h264_dec_decode_one_macroblock:fw_ref_idx <- -1
	@DEBUG_VALUE: h264_dec_decode_one_macroblock:bw_refframe <- -1
	@DEBUG_VALUE: h264_dec_decode_one_macroblock:fw_refframe <- -1
	@DEBUG_VALUE: h264_dec_decode_one_macroblock:fw_pred <- 0
	@DEBUG_VALUE: h264_dec_decode_one_macroblock:bw_pred <- 0
	@DEBUG_VALUE: h264_dec_decode_one_macroblock:j <- 0
	@DEBUG_VALUE: h264_dec_decode_one_macroblock:i <- 0
	.loc	2 0 47 is_stmt 0                @ h264_dec/h264_dec.c:0:47
	mov	r5, #0
	b	.LBB2_37
.Ltmp92:
.LBB2_36:                               @ %cond.true148
                                        @   in Loop: Header=BB2_14 Depth=5
	@DEBUG_VALUE: h264_dec_decode_one_macroblock:j1 <- $r8
	@DEBUG_VALUE: h264_dec_decode_one_macroblock:jf <- [DW_OP_plus_uconst 36] [$sp+0]
	@DEBUG_VALUE: h264_dec_decode_one_macroblock:jj <- [DW_OP_plus_uconst 4] [$sp+0]
	@DEBUG_VALUE: h264_dec_decode_one_macroblock:pred_dir <- -1
	@DEBUG_VALUE: h264_dec_decode_one_macroblock:mv_mode <- 1
	@DEBUG_VALUE: h264_dec_decode_one_macroblock:ioff <- 0
	@DEBUG_VALUE: h264_dec_decode_one_macroblock:joff <- 0
	@DEBUG_VALUE: h264_dec_decode_one_macroblock:intra_prediction <- 0
	@DEBUG_VALUE: h264_dec_decode_one_macroblock:f2_x <- [DW_OP_plus_uconst 8] [$sp+0]
	@DEBUG_VALUE: h264_dec_decode_one_macroblock:f4 <- [DW_OP_plus_uconst 12] [$sp+0]
	@DEBUG_VALUE: h264_dec_decode_one_macroblock:f2_y <- [DW_OP_constu 60, DW_OP_minus] [$r11+0]
	@DEBUG_VALUE: h264_dec_decode_one_macroblock:f3 <- [DW_OP_plus_uconst 16] [$sp+0]
	@DEBUG_VALUE: h264_dec_decode_one_macroblock:f1_x <- [DW_OP_constu 56, DW_OP_minus] [$r11+0]
	@DEBUG_VALUE: h264_dec_decode_one_macroblock:f1_y <- [DW_OP_constu 36, DW_OP_minus] [$r11+0]
	@DEBUG_VALUE: h264_dec_decode_one_macroblock:img <- [DW_OP_constu 32, DW_OP_minus] [$r11+0]
	@DEBUG_VALUE: h264_dec_decode_one_macroblock:residue_transform_flag <- 0
	@DEBUG_VALUE: h264_dec_decode_one_macroblock:curr_mb_field <- 0
	@DEBUG_VALUE: h264_dec_decode_one_macroblock:direct_pdir <- -1
	@DEBUG_VALUE: h264_dec_decode_one_macroblock:max_y_cr <- 287
	@DEBUG_VALUE: h264_dec_decode_one_macroblock:smb <- 0
	@DEBUG_VALUE: h264_dec_decode_one_macroblock:active_pps_weighted_bipred_idc <- 0
	@DEBUG_VALUE: h264_dec_decode_one_macroblock:active_pps_weighted_pred_flag <- 0
	@DEBUG_VALUE: h264_dec_decode_one_macroblock:active_sps_chroma_format_idc <- 1
	@DEBUG_VALUE: h264_dec_decode_one_macroblock:dec_picture_ref_idx <- 0
	@DEBUG_VALUE: h264_dec_decode_one_macroblock:mb_nr <- 0
	@DEBUG_VALUE: h264_dec_decode_one_macroblock:bw_ref_idx <- -1
	@DEBUG_VALUE: h264_dec_decode_one_macroblock:fw_ref_idx <- -1
	@DEBUG_VALUE: h264_dec_decode_one_macroblock:bw_refframe <- -1
	@DEBUG_VALUE: h264_dec_decode_one_macroblock:fw_refframe <- -1
	@DEBUG_VALUE: h264_dec_decode_one_macroblock:fw_pred <- 0
	@DEBUG_VALUE: h264_dec_decode_one_macroblock:bw_pred <- 0
	@DEBUG_VALUE: h264_dec_decode_one_macroblock:j <- 0
	@DEBUG_VALUE: h264_dec_decode_one_macroblock:i <- 0
	.loc	2 207 40 is_stmt 1              @ h264_dec/h264_dec.c:207:40
	ldr	r0, [r11, #-32]                 @ 4-byte Reload
	ldr	r0, [r0, #8]
	.loc	2 207 49 is_stmt 0              @ h264_dec/h264_dec.c:207:49
	sub	r5, r0, #1
.Ltmp93:
.LBB2_37:                               @ %cond.end157
                                        @   in Loop: Header=BB2_14 Depth=5
	@DEBUG_VALUE: h264_dec_decode_one_macroblock:j1 <- $r8
	@DEBUG_VALUE: h264_dec_decode_one_macroblock:jf <- [DW_OP_plus_uconst 36] [$sp+0]
	@DEBUG_VALUE: h264_dec_decode_one_macroblock:jj <- [DW_OP_plus_uconst 4] [$sp+0]
	@DEBUG_VALUE: h264_dec_decode_one_macroblock:pred_dir <- -1
	@DEBUG_VALUE: h264_dec_decode_one_macroblock:mv_mode <- 1
	@DEBUG_VALUE: h264_dec_decode_one_macroblock:ioff <- 0
	@DEBUG_VALUE: h264_dec_decode_one_macroblock:joff <- 0
	@DEBUG_VALUE: h264_dec_decode_one_macroblock:intra_prediction <- 0
	@DEBUG_VALUE: h264_dec_decode_one_macroblock:f2_x <- [DW_OP_plus_uconst 8] [$sp+0]
	@DEBUG_VALUE: h264_dec_decode_one_macroblock:f4 <- [DW_OP_plus_uconst 12] [$sp+0]
	@DEBUG_VALUE: h264_dec_decode_one_macroblock:f2_y <- [DW_OP_constu 60, DW_OP_minus] [$r11+0]
	@DEBUG_VALUE: h264_dec_decode_one_macroblock:f3 <- [DW_OP_plus_uconst 16] [$sp+0]
	@DEBUG_VALUE: h264_dec_decode_one_macroblock:f1_x <- [DW_OP_constu 56, DW_OP_minus] [$r11+0]
	@DEBUG_VALUE: h264_dec_decode_one_macroblock:f1_y <- [DW_OP_constu 36, DW_OP_minus] [$r11+0]
	@DEBUG_VALUE: h264_dec_decode_one_macroblock:img <- [DW_OP_constu 32, DW_OP_minus] [$r11+0]
	@DEBUG_VALUE: h264_dec_decode_one_macroblock:residue_transform_flag <- 0
	@DEBUG_VALUE: h264_dec_decode_one_macroblock:curr_mb_field <- 0
	@DEBUG_VALUE: h264_dec_decode_one_macroblock:direct_pdir <- -1
	@DEBUG_VALUE: h264_dec_decode_one_macroblock:max_y_cr <- 287
	@DEBUG_VALUE: h264_dec_decode_one_macroblock:smb <- 0
	@DEBUG_VALUE: h264_dec_decode_one_macroblock:active_pps_weighted_bipred_idc <- 0
	@DEBUG_VALUE: h264_dec_decode_one_macroblock:active_pps_weighted_pred_flag <- 0
	@DEBUG_VALUE: h264_dec_decode_one_macroblock:active_sps_chroma_format_idc <- 1
	@DEBUG_VALUE: h264_dec_decode_one_macroblock:dec_picture_ref_idx <- 0
	@DEBUG_VALUE: h264_dec_decode_one_macroblock:mb_nr <- 0
	@DEBUG_VALUE: h264_dec_decode_one_macroblock:bw_ref_idx <- -1
	@DEBUG_VALUE: h264_dec_decode_one_macroblock:fw_ref_idx <- -1
	@DEBUG_VALUE: h264_dec_decode_one_macroblock:bw_refframe <- -1
	@DEBUG_VALUE: h264_dec_decode_one_macroblock:fw_refframe <- -1
	@DEBUG_VALUE: h264_dec_decode_one_macroblock:fw_pred <- 0
	@DEBUG_VALUE: h264_dec_decode_one_macroblock:bw_pred <- 0
	@DEBUG_VALUE: h264_dec_decode_one_macroblock:j <- 0
	@DEBUG_VALUE: h264_dec_decode_one_macroblock:i <- 0
	@DEBUG_VALUE: h264_dec_decode_one_macroblock:ii0 <- undef
	@DEBUG_VALUE: h264_dec_decode_one_macroblock:jj0 <- undef
	.loc	2 208 64 is_stmt 1              @ h264_dec/h264_dec.c:208:64
	ldr	r1, .LCPI2_2
	smull	r0, r4, r5, r1
.Ltmp94:
	@DEBUG_VALUE: h264_dec_decode_one_macroblock:ii1 <- undef
	.loc	2 209 53                        @ h264_dec/h264_dec.c:209:53
	ldr	r1, [r11, #-36]                 @ 4-byte Reload
	.loc	2 209 44 is_stmt 0              @ h264_dec/h264_dec.c:209:44
	ldr	r0, [r11, #-60]                 @ 4-byte Reload
	add	r6, r8, r0
	.loc	2 209 53                        @ h264_dec/h264_dec.c:209:53
	mov	r0, r6
	bl	__divsi3
	.loc	2 209 37                        @ h264_dec/h264_dec.c:209:37
	cmp	r0, #288
	mov	r0, r7
	bge	.LBB2_39
.Ltmp95:
@ %bb.38:                               @ %cond.false165
                                        @   in Loop: Header=BB2_14 Depth=5
	@DEBUG_VALUE: h264_dec_decode_one_macroblock:j1 <- $r8
	@DEBUG_VALUE: h264_dec_decode_one_macroblock:jf <- [DW_OP_plus_uconst 36] [$sp+0]
	@DEBUG_VALUE: h264_dec_decode_one_macroblock:jj <- [DW_OP_plus_uconst 4] [$sp+0]
	@DEBUG_VALUE: h264_dec_decode_one_macroblock:pred_dir <- -1
	@DEBUG_VALUE: h264_dec_decode_one_macroblock:mv_mode <- 1
	@DEBUG_VALUE: h264_dec_decode_one_macroblock:ioff <- 0
	@DEBUG_VALUE: h264_dec_decode_one_macroblock:joff <- 0
	@DEBUG_VALUE: h264_dec_decode_one_macroblock:intra_prediction <- 0
	@DEBUG_VALUE: h264_dec_decode_one_macroblock:f2_x <- [DW_OP_plus_uconst 8] [$sp+0]
	@DEBUG_VALUE: h264_dec_decode_one_macroblock:f4 <- [DW_OP_plus_uconst 12] [$sp+0]
	@DEBUG_VALUE: h264_dec_decode_one_macroblock:f2_y <- [DW_OP_constu 60, DW_OP_minus] [$r11+0]
	@DEBUG_VALUE: h264_dec_decode_one_macroblock:f3 <- [DW_OP_plus_uconst 16] [$sp+0]
	@DEBUG_VALUE: h264_dec_decode_one_macroblock:f1_x <- [DW_OP_constu 56, DW_OP_minus] [$r11+0]
	@DEBUG_VALUE: h264_dec_decode_one_macroblock:f1_y <- [DW_OP_constu 36, DW_OP_minus] [$r11+0]
	@DEBUG_VALUE: h264_dec_decode_one_macroblock:img <- [DW_OP_constu 32, DW_OP_minus] [$r11+0]
	@DEBUG_VALUE: h264_dec_decode_one_macroblock:residue_transform_flag <- 0
	@DEBUG_VALUE: h264_dec_decode_one_macroblock:curr_mb_field <- 0
	@DEBUG_VALUE: h264_dec_decode_one_macroblock:direct_pdir <- -1
	@DEBUG_VALUE: h264_dec_decode_one_macroblock:max_y_cr <- 287
	@DEBUG_VALUE: h264_dec_decode_one_macroblock:smb <- 0
	@DEBUG_VALUE: h264_dec_decode_one_macroblock:active_pps_weighted_bipred_idc <- 0
	@DEBUG_VALUE: h264_dec_decode_one_macroblock:active_pps_weighted_pred_flag <- 0
	@DEBUG_VALUE: h264_dec_decode_one_macroblock:active_sps_chroma_format_idc <- 1
	@DEBUG_VALUE: h264_dec_decode_one_macroblock:dec_picture_ref_idx <- 0
	@DEBUG_VALUE: h264_dec_decode_one_macroblock:mb_nr <- 0
	@DEBUG_VALUE: h264_dec_decode_one_macroblock:bw_ref_idx <- -1
	@DEBUG_VALUE: h264_dec_decode_one_macroblock:fw_ref_idx <- -1
	@DEBUG_VALUE: h264_dec_decode_one_macroblock:bw_refframe <- -1
	@DEBUG_VALUE: h264_dec_decode_one_macroblock:fw_refframe <- -1
	@DEBUG_VALUE: h264_dec_decode_one_macroblock:fw_pred <- 0
	@DEBUG_VALUE: h264_dec_decode_one_macroblock:bw_pred <- 0
	@DEBUG_VALUE: h264_dec_decode_one_macroblock:j <- 0
	@DEBUG_VALUE: h264_dec_decode_one_macroblock:i <- 0
	.loc	2 210 64 is_stmt 1              @ h264_dec/h264_dec.c:210:64
	ldr	r1, [r11, #-36]                 @ 4-byte Reload
	mov	r0, r6
	bl	__divsi3
.Ltmp96:
.LBB2_39:                               @ %cond.end168
                                        @   in Loop: Header=BB2_14 Depth=5
	@DEBUG_VALUE: h264_dec_decode_one_macroblock:j1 <- $r8
	@DEBUG_VALUE: h264_dec_decode_one_macroblock:jf <- [DW_OP_plus_uconst 36] [$sp+0]
	@DEBUG_VALUE: h264_dec_decode_one_macroblock:jj <- [DW_OP_plus_uconst 4] [$sp+0]
	@DEBUG_VALUE: h264_dec_decode_one_macroblock:pred_dir <- -1
	@DEBUG_VALUE: h264_dec_decode_one_macroblock:mv_mode <- 1
	@DEBUG_VALUE: h264_dec_decode_one_macroblock:ioff <- 0
	@DEBUG_VALUE: h264_dec_decode_one_macroblock:joff <- 0
	@DEBUG_VALUE: h264_dec_decode_one_macroblock:intra_prediction <- 0
	@DEBUG_VALUE: h264_dec_decode_one_macroblock:f2_x <- [DW_OP_plus_uconst 8] [$sp+0]
	@DEBUG_VALUE: h264_dec_decode_one_macroblock:f4 <- [DW_OP_plus_uconst 12] [$sp+0]
	@DEBUG_VALUE: h264_dec_decode_one_macroblock:f2_y <- [DW_OP_constu 60, DW_OP_minus] [$r11+0]
	@DEBUG_VALUE: h264_dec_decode_one_macroblock:f3 <- [DW_OP_plus_uconst 16] [$sp+0]
	@DEBUG_VALUE: h264_dec_decode_one_macroblock:f1_x <- [DW_OP_constu 56, DW_OP_minus] [$r11+0]
	@DEBUG_VALUE: h264_dec_decode_one_macroblock:f1_y <- [DW_OP_constu 36, DW_OP_minus] [$r11+0]
	@DEBUG_VALUE: h264_dec_decode_one_macroblock:img <- [DW_OP_constu 32, DW_OP_minus] [$r11+0]
	@DEBUG_VALUE: h264_dec_decode_one_macroblock:residue_transform_flag <- 0
	@DEBUG_VALUE: h264_dec_decode_one_macroblock:curr_mb_field <- 0
	@DEBUG_VALUE: h264_dec_decode_one_macroblock:direct_pdir <- -1
	@DEBUG_VALUE: h264_dec_decode_one_macroblock:max_y_cr <- 287
	@DEBUG_VALUE: h264_dec_decode_one_macroblock:smb <- 0
	@DEBUG_VALUE: h264_dec_decode_one_macroblock:active_pps_weighted_bipred_idc <- 0
	@DEBUG_VALUE: h264_dec_decode_one_macroblock:active_pps_weighted_pred_flag <- 0
	@DEBUG_VALUE: h264_dec_decode_one_macroblock:active_sps_chroma_format_idc <- 1
	@DEBUG_VALUE: h264_dec_decode_one_macroblock:dec_picture_ref_idx <- 0
	@DEBUG_VALUE: h264_dec_decode_one_macroblock:mb_nr <- 0
	@DEBUG_VALUE: h264_dec_decode_one_macroblock:bw_ref_idx <- -1
	@DEBUG_VALUE: h264_dec_decode_one_macroblock:fw_ref_idx <- -1
	@DEBUG_VALUE: h264_dec_decode_one_macroblock:bw_refframe <- -1
	@DEBUG_VALUE: h264_dec_decode_one_macroblock:fw_refframe <- -1
	@DEBUG_VALUE: h264_dec_decode_one_macroblock:fw_pred <- 0
	@DEBUG_VALUE: h264_dec_decode_one_macroblock:bw_pred <- 0
	@DEBUG_VALUE: h264_dec_decode_one_macroblock:j <- 0
	@DEBUG_VALUE: h264_dec_decode_one_macroblock:i <- 0
	@DEBUG_VALUE: h264_dec_decode_one_macroblock:ii0 <- undef
	@DEBUG_VALUE: h264_dec_decode_one_macroblock:jj0 <- undef
	@DEBUG_VALUE: h264_dec_decode_one_macroblock:ii1 <- undef
	.loc	2 209 29                        @ h264_dec/h264_dec.c:209:29
	cmp	r0, #1
	blt	.LBB2_42
.Ltmp97:
@ %bb.40:                               @ %cond.true172
                                        @   in Loop: Header=BB2_14 Depth=5
	@DEBUG_VALUE: h264_dec_decode_one_macroblock:j1 <- $r8
	@DEBUG_VALUE: h264_dec_decode_one_macroblock:jf <- [DW_OP_plus_uconst 36] [$sp+0]
	@DEBUG_VALUE: h264_dec_decode_one_macroblock:jj <- [DW_OP_plus_uconst 4] [$sp+0]
	@DEBUG_VALUE: h264_dec_decode_one_macroblock:pred_dir <- -1
	@DEBUG_VALUE: h264_dec_decode_one_macroblock:mv_mode <- 1
	@DEBUG_VALUE: h264_dec_decode_one_macroblock:ioff <- 0
	@DEBUG_VALUE: h264_dec_decode_one_macroblock:joff <- 0
	@DEBUG_VALUE: h264_dec_decode_one_macroblock:intra_prediction <- 0
	@DEBUG_VALUE: h264_dec_decode_one_macroblock:f2_x <- [DW_OP_plus_uconst 8] [$sp+0]
	@DEBUG_VALUE: h264_dec_decode_one_macroblock:f4 <- [DW_OP_plus_uconst 12] [$sp+0]
	@DEBUG_VALUE: h264_dec_decode_one_macroblock:f2_y <- [DW_OP_constu 60, DW_OP_minus] [$r11+0]
	@DEBUG_VALUE: h264_dec_decode_one_macroblock:f3 <- [DW_OP_plus_uconst 16] [$sp+0]
	@DEBUG_VALUE: h264_dec_decode_one_macroblock:f1_x <- [DW_OP_constu 56, DW_OP_minus] [$r11+0]
	@DEBUG_VALUE: h264_dec_decode_one_macroblock:f1_y <- [DW_OP_constu 36, DW_OP_minus] [$r11+0]
	@DEBUG_VALUE: h264_dec_decode_one_macroblock:img <- [DW_OP_constu 32, DW_OP_minus] [$r11+0]
	@DEBUG_VALUE: h264_dec_decode_one_macroblock:residue_transform_flag <- 0
	@DEBUG_VALUE: h264_dec_decode_one_macroblock:curr_mb_field <- 0
	@DEBUG_VALUE: h264_dec_decode_one_macroblock:direct_pdir <- -1
	@DEBUG_VALUE: h264_dec_decode_one_macroblock:max_y_cr <- 287
	@DEBUG_VALUE: h264_dec_decode_one_macroblock:smb <- 0
	@DEBUG_VALUE: h264_dec_decode_one_macroblock:active_pps_weighted_bipred_idc <- 0
	@DEBUG_VALUE: h264_dec_decode_one_macroblock:active_pps_weighted_pred_flag <- 0
	@DEBUG_VALUE: h264_dec_decode_one_macroblock:active_sps_chroma_format_idc <- 1
	@DEBUG_VALUE: h264_dec_decode_one_macroblock:dec_picture_ref_idx <- 0
	@DEBUG_VALUE: h264_dec_decode_one_macroblock:mb_nr <- 0
	@DEBUG_VALUE: h264_dec_decode_one_macroblock:bw_ref_idx <- -1
	@DEBUG_VALUE: h264_dec_decode_one_macroblock:fw_ref_idx <- -1
	@DEBUG_VALUE: h264_dec_decode_one_macroblock:bw_refframe <- -1
	@DEBUG_VALUE: h264_dec_decode_one_macroblock:fw_refframe <- -1
	@DEBUG_VALUE: h264_dec_decode_one_macroblock:fw_pred <- 0
	@DEBUG_VALUE: h264_dec_decode_one_macroblock:bw_pred <- 0
	@DEBUG_VALUE: h264_dec_decode_one_macroblock:j <- 0
	@DEBUG_VALUE: h264_dec_decode_one_macroblock:i <- 0
	.loc	2 211 47                        @ h264_dec/h264_dec.c:211:47
	ldr	r1, [r11, #-36]                 @ 4-byte Reload
	mov	r0, r6
	bl	__divsi3
	.loc	2 211 31 is_stmt 0              @ h264_dec/h264_dec.c:211:31
	cmp	r0, #288
	mov	r0, r7
	bge	.LBB2_43
.Ltmp98:
@ %bb.41:                               @ %cond.false178
                                        @   in Loop: Header=BB2_14 Depth=5
	@DEBUG_VALUE: h264_dec_decode_one_macroblock:j1 <- $r8
	@DEBUG_VALUE: h264_dec_decode_one_macroblock:jf <- [DW_OP_plus_uconst 36] [$sp+0]
	@DEBUG_VALUE: h264_dec_decode_one_macroblock:jj <- [DW_OP_plus_uconst 4] [$sp+0]
	@DEBUG_VALUE: h264_dec_decode_one_macroblock:pred_dir <- -1
	@DEBUG_VALUE: h264_dec_decode_one_macroblock:mv_mode <- 1
	@DEBUG_VALUE: h264_dec_decode_one_macroblock:ioff <- 0
	@DEBUG_VALUE: h264_dec_decode_one_macroblock:joff <- 0
	@DEBUG_VALUE: h264_dec_decode_one_macroblock:intra_prediction <- 0
	@DEBUG_VALUE: h264_dec_decode_one_macroblock:f2_x <- [DW_OP_plus_uconst 8] [$sp+0]
	@DEBUG_VALUE: h264_dec_decode_one_macroblock:f4 <- [DW_OP_plus_uconst 12] [$sp+0]
	@DEBUG_VALUE: h264_dec_decode_one_macroblock:f2_y <- [DW_OP_constu 60, DW_OP_minus] [$r11+0]
	@DEBUG_VALUE: h264_dec_decode_one_macroblock:f3 <- [DW_OP_plus_uconst 16] [$sp+0]
	@DEBUG_VALUE: h264_dec_decode_one_macroblock:f1_x <- [DW_OP_constu 56, DW_OP_minus] [$r11+0]
	@DEBUG_VALUE: h264_dec_decode_one_macroblock:f1_y <- [DW_OP_constu 36, DW_OP_minus] [$r11+0]
	@DEBUG_VALUE: h264_dec_decode_one_macroblock:img <- [DW_OP_constu 32, DW_OP_minus] [$r11+0]
	@DEBUG_VALUE: h264_dec_decode_one_macroblock:residue_transform_flag <- 0
	@DEBUG_VALUE: h264_dec_decode_one_macroblock:curr_mb_field <- 0
	@DEBUG_VALUE: h264_dec_decode_one_macroblock:direct_pdir <- -1
	@DEBUG_VALUE: h264_dec_decode_one_macroblock:max_y_cr <- 287
	@DEBUG_VALUE: h264_dec_decode_one_macroblock:smb <- 0
	@DEBUG_VALUE: h264_dec_decode_one_macroblock:active_pps_weighted_bipred_idc <- 0
	@DEBUG_VALUE: h264_dec_decode_one_macroblock:active_pps_weighted_pred_flag <- 0
	@DEBUG_VALUE: h264_dec_decode_one_macroblock:active_sps_chroma_format_idc <- 1
	@DEBUG_VALUE: h264_dec_decode_one_macroblock:dec_picture_ref_idx <- 0
	@DEBUG_VALUE: h264_dec_decode_one_macroblock:mb_nr <- 0
	@DEBUG_VALUE: h264_dec_decode_one_macroblock:bw_ref_idx <- -1
	@DEBUG_VALUE: h264_dec_decode_one_macroblock:fw_ref_idx <- -1
	@DEBUG_VALUE: h264_dec_decode_one_macroblock:bw_refframe <- -1
	@DEBUG_VALUE: h264_dec_decode_one_macroblock:fw_refframe <- -1
	@DEBUG_VALUE: h264_dec_decode_one_macroblock:fw_pred <- 0
	@DEBUG_VALUE: h264_dec_decode_one_macroblock:bw_pred <- 0
	@DEBUG_VALUE: h264_dec_decode_one_macroblock:j <- 0
	@DEBUG_VALUE: h264_dec_decode_one_macroblock:i <- 0
	.loc	2 212 56 is_stmt 1              @ h264_dec/h264_dec.c:212:56
	ldr	r1, [r11, #-36]                 @ 4-byte Reload
	mov	r0, r6
	bl	__divsi3
	b	.LBB2_43
.Ltmp99:
.LBB2_42:                               @   in Loop: Header=BB2_14 Depth=5
	@DEBUG_VALUE: h264_dec_decode_one_macroblock:j1 <- $r8
	@DEBUG_VALUE: h264_dec_decode_one_macroblock:jf <- [DW_OP_plus_uconst 36] [$sp+0]
	@DEBUG_VALUE: h264_dec_decode_one_macroblock:jj <- [DW_OP_plus_uconst 4] [$sp+0]
	@DEBUG_VALUE: h264_dec_decode_one_macroblock:pred_dir <- -1
	@DEBUG_VALUE: h264_dec_decode_one_macroblock:mv_mode <- 1
	@DEBUG_VALUE: h264_dec_decode_one_macroblock:ioff <- 0
	@DEBUG_VALUE: h264_dec_decode_one_macroblock:joff <- 0
	@DEBUG_VALUE: h264_dec_decode_one_macroblock:intra_prediction <- 0
	@DEBUG_VALUE: h264_dec_decode_one_macroblock:f2_x <- [DW_OP_plus_uconst 8] [$sp+0]
	@DEBUG_VALUE: h264_dec_decode_one_macroblock:f4 <- [DW_OP_plus_uconst 12] [$sp+0]
	@DEBUG_VALUE: h264_dec_decode_one_macroblock:f2_y <- [DW_OP_constu 60, DW_OP_minus] [$r11+0]
	@DEBUG_VALUE: h264_dec_decode_one_macroblock:f3 <- [DW_OP_plus_uconst 16] [$sp+0]
	@DEBUG_VALUE: h264_dec_decode_one_macroblock:f1_x <- [DW_OP_constu 56, DW_OP_minus] [$r11+0]
	@DEBUG_VALUE: h264_dec_decode_one_macroblock:f1_y <- [DW_OP_constu 36, DW_OP_minus] [$r11+0]
	@DEBUG_VALUE: h264_dec_decode_one_macroblock:img <- [DW_OP_constu 32, DW_OP_minus] [$r11+0]
	@DEBUG_VALUE: h264_dec_decode_one_macroblock:residue_transform_flag <- 0
	@DEBUG_VALUE: h264_dec_decode_one_macroblock:curr_mb_field <- 0
	@DEBUG_VALUE: h264_dec_decode_one_macroblock:direct_pdir <- -1
	@DEBUG_VALUE: h264_dec_decode_one_macroblock:max_y_cr <- 287
	@DEBUG_VALUE: h264_dec_decode_one_macroblock:smb <- 0
	@DEBUG_VALUE: h264_dec_decode_one_macroblock:active_pps_weighted_bipred_idc <- 0
	@DEBUG_VALUE: h264_dec_decode_one_macroblock:active_pps_weighted_pred_flag <- 0
	@DEBUG_VALUE: h264_dec_decode_one_macroblock:active_sps_chroma_format_idc <- 1
	@DEBUG_VALUE: h264_dec_decode_one_macroblock:dec_picture_ref_idx <- 0
	@DEBUG_VALUE: h264_dec_decode_one_macroblock:mb_nr <- 0
	@DEBUG_VALUE: h264_dec_decode_one_macroblock:bw_ref_idx <- -1
	@DEBUG_VALUE: h264_dec_decode_one_macroblock:fw_ref_idx <- -1
	@DEBUG_VALUE: h264_dec_decode_one_macroblock:bw_refframe <- -1
	@DEBUG_VALUE: h264_dec_decode_one_macroblock:fw_refframe <- -1
	@DEBUG_VALUE: h264_dec_decode_one_macroblock:fw_pred <- 0
	@DEBUG_VALUE: h264_dec_decode_one_macroblock:bw_pred <- 0
	@DEBUG_VALUE: h264_dec_decode_one_macroblock:j <- 0
	@DEBUG_VALUE: h264_dec_decode_one_macroblock:i <- 0
	.loc	2 0 56 is_stmt 0                @ h264_dec/h264_dec.c:0:56
	mov	r0, #0
.Ltmp100:
.LBB2_43:                               @ %cond.end184
                                        @   in Loop: Header=BB2_14 Depth=5
	@DEBUG_VALUE: h264_dec_decode_one_macroblock:j1 <- $r8
	@DEBUG_VALUE: h264_dec_decode_one_macroblock:jf <- [DW_OP_plus_uconst 36] [$sp+0]
	@DEBUG_VALUE: h264_dec_decode_one_macroblock:jj <- [DW_OP_plus_uconst 4] [$sp+0]
	@DEBUG_VALUE: h264_dec_decode_one_macroblock:pred_dir <- -1
	@DEBUG_VALUE: h264_dec_decode_one_macroblock:mv_mode <- 1
	@DEBUG_VALUE: h264_dec_decode_one_macroblock:ioff <- 0
	@DEBUG_VALUE: h264_dec_decode_one_macroblock:joff <- 0
	@DEBUG_VALUE: h264_dec_decode_one_macroblock:intra_prediction <- 0
	@DEBUG_VALUE: h264_dec_decode_one_macroblock:f2_x <- [DW_OP_plus_uconst 8] [$sp+0]
	@DEBUG_VALUE: h264_dec_decode_one_macroblock:f4 <- [DW_OP_plus_uconst 12] [$sp+0]
	@DEBUG_VALUE: h264_dec_decode_one_macroblock:f2_y <- [DW_OP_constu 60, DW_OP_minus] [$r11+0]
	@DEBUG_VALUE: h264_dec_decode_one_macroblock:f3 <- [DW_OP_plus_uconst 16] [$sp+0]
	@DEBUG_VALUE: h264_dec_decode_one_macroblock:f1_x <- [DW_OP_constu 56, DW_OP_minus] [$r11+0]
	@DEBUG_VALUE: h264_dec_decode_one_macroblock:f1_y <- [DW_OP_constu 36, DW_OP_minus] [$r11+0]
	@DEBUG_VALUE: h264_dec_decode_one_macroblock:img <- [DW_OP_constu 32, DW_OP_minus] [$r11+0]
	@DEBUG_VALUE: h264_dec_decode_one_macroblock:residue_transform_flag <- 0
	@DEBUG_VALUE: h264_dec_decode_one_macroblock:curr_mb_field <- 0
	@DEBUG_VALUE: h264_dec_decode_one_macroblock:direct_pdir <- -1
	@DEBUG_VALUE: h264_dec_decode_one_macroblock:max_y_cr <- 287
	@DEBUG_VALUE: h264_dec_decode_one_macroblock:smb <- 0
	@DEBUG_VALUE: h264_dec_decode_one_macroblock:active_pps_weighted_bipred_idc <- 0
	@DEBUG_VALUE: h264_dec_decode_one_macroblock:active_pps_weighted_pred_flag <- 0
	@DEBUG_VALUE: h264_dec_decode_one_macroblock:active_sps_chroma_format_idc <- 1
	@DEBUG_VALUE: h264_dec_decode_one_macroblock:dec_picture_ref_idx <- 0
	@DEBUG_VALUE: h264_dec_decode_one_macroblock:mb_nr <- 0
	@DEBUG_VALUE: h264_dec_decode_one_macroblock:bw_ref_idx <- -1
	@DEBUG_VALUE: h264_dec_decode_one_macroblock:fw_ref_idx <- -1
	@DEBUG_VALUE: h264_dec_decode_one_macroblock:bw_refframe <- -1
	@DEBUG_VALUE: h264_dec_decode_one_macroblock:fw_refframe <- -1
	@DEBUG_VALUE: h264_dec_decode_one_macroblock:fw_pred <- 0
	@DEBUG_VALUE: h264_dec_decode_one_macroblock:bw_pred <- 0
	@DEBUG_VALUE: h264_dec_decode_one_macroblock:j <- 0
	@DEBUG_VALUE: h264_dec_decode_one_macroblock:i <- 0
	@DEBUG_VALUE: h264_dec_decode_one_macroblock:ii0 <- undef
	@DEBUG_VALUE: h264_dec_decode_one_macroblock:jj0 <- undef
	@DEBUG_VALUE: h264_dec_decode_one_macroblock:ii1 <- undef
	@DEBUG_VALUE: h264_dec_decode_one_macroblock:jj1 <- undef
	@DEBUG_VALUE: h264_dec_decode_one_macroblock:jf1 <- undef
	@DEBUG_VALUE: h264_dec_decode_one_macroblock:jf0 <- undef
	@DEBUG_VALUE: h264_dec_decode_one_macroblock:if1 <- undef
	@DEBUG_VALUE: h264_dec_decode_one_macroblock:if0 <- undef
	.loc	2 219 29 is_stmt 1              @ h264_dec/h264_dec.c:219:29
	ldr	r1, [r11, #-32]                 @ 4-byte Reload
	ldr	r1, [r1, #540]
.Ltmp101:
	.loc	2 219 24 is_stmt 0              @ h264_dec/h264_dec.c:219:24
	cmp	r1, #0
	bne	.LBB2_13
.Ltmp102:
@ %bb.44:                               @ %if.else192
                                        @   in Loop: Header=BB2_14 Depth=5
	@DEBUG_VALUE: h264_dec_decode_one_macroblock:j1 <- $r8
	@DEBUG_VALUE: h264_dec_decode_one_macroblock:jf <- [DW_OP_plus_uconst 36] [$sp+0]
	@DEBUG_VALUE: h264_dec_decode_one_macroblock:jj <- [DW_OP_plus_uconst 4] [$sp+0]
	@DEBUG_VALUE: h264_dec_decode_one_macroblock:pred_dir <- -1
	@DEBUG_VALUE: h264_dec_decode_one_macroblock:mv_mode <- 1
	@DEBUG_VALUE: h264_dec_decode_one_macroblock:ioff <- 0
	@DEBUG_VALUE: h264_dec_decode_one_macroblock:joff <- 0
	@DEBUG_VALUE: h264_dec_decode_one_macroblock:intra_prediction <- 0
	@DEBUG_VALUE: h264_dec_decode_one_macroblock:f2_x <- [DW_OP_plus_uconst 8] [$sp+0]
	@DEBUG_VALUE: h264_dec_decode_one_macroblock:f4 <- [DW_OP_plus_uconst 12] [$sp+0]
	@DEBUG_VALUE: h264_dec_decode_one_macroblock:f2_y <- [DW_OP_constu 60, DW_OP_minus] [$r11+0]
	@DEBUG_VALUE: h264_dec_decode_one_macroblock:f3 <- [DW_OP_plus_uconst 16] [$sp+0]
	@DEBUG_VALUE: h264_dec_decode_one_macroblock:f1_x <- [DW_OP_constu 56, DW_OP_minus] [$r11+0]
	@DEBUG_VALUE: h264_dec_decode_one_macroblock:f1_y <- [DW_OP_constu 36, DW_OP_minus] [$r11+0]
	@DEBUG_VALUE: h264_dec_decode_one_macroblock:img <- [DW_OP_constu 32, DW_OP_minus] [$r11+0]
	@DEBUG_VALUE: h264_dec_decode_one_macroblock:residue_transform_flag <- 0
	@DEBUG_VALUE: h264_dec_decode_one_macroblock:curr_mb_field <- 0
	@DEBUG_VALUE: h264_dec_decode_one_macroblock:direct_pdir <- -1
	@DEBUG_VALUE: h264_dec_decode_one_macroblock:max_y_cr <- 287
	@DEBUG_VALUE: h264_dec_decode_one_macroblock:smb <- 0
	@DEBUG_VALUE: h264_dec_decode_one_macroblock:active_pps_weighted_bipred_idc <- 0
	@DEBUG_VALUE: h264_dec_decode_one_macroblock:active_pps_weighted_pred_flag <- 0
	@DEBUG_VALUE: h264_dec_decode_one_macroblock:active_sps_chroma_format_idc <- 1
	@DEBUG_VALUE: h264_dec_decode_one_macroblock:dec_picture_ref_idx <- 0
	@DEBUG_VALUE: h264_dec_decode_one_macroblock:mb_nr <- 0
	@DEBUG_VALUE: h264_dec_decode_one_macroblock:bw_ref_idx <- -1
	@DEBUG_VALUE: h264_dec_decode_one_macroblock:fw_ref_idx <- -1
	@DEBUG_VALUE: h264_dec_decode_one_macroblock:bw_refframe <- -1
	@DEBUG_VALUE: h264_dec_decode_one_macroblock:fw_refframe <- -1
	@DEBUG_VALUE: h264_dec_decode_one_macroblock:fw_pred <- 0
	@DEBUG_VALUE: h264_dec_decode_one_macroblock:bw_pred <- 0
	@DEBUG_VALUE: h264_dec_decode_one_macroblock:j <- 0
	@DEBUG_VALUE: h264_dec_decode_one_macroblock:i <- 0
	.loc	2 0 24                          @ h264_dec/h264_dec.c:0:24
	ldr	r3, [sp, #60]                   @ 4-byte Reload
	ldr	r1, [sp, #56]                   @ 4-byte Reload
	mov	r7, #45
	add	r1, r1, r3
	asr	r2, r1, #5
	add	r1, r2, r1, lsr #31
	mul	r2, r1, r7
	ldr	r1, [sp, #52]                   @ 4-byte Reload
	sub	r9, r3, r2
.Ltmp103:
	@DEBUG_VALUE: h264_dec_decode_one_macroblock:ii0 <- $r9
	add	r2, r1, r10
	ldr	r1, .LCPI2_2
	asr	r3, r2, #5
	add	r2, r3, r2, lsr #31
	mul	r3, r2, r7
	sub	r12, r10, r3
.Ltmp104:
	@DEBUG_VALUE: h264_dec_decode_one_macroblock:jj0 <- $r12
	add	r3, r4, r5
	asr	r6, r3, #5
	add	r3, r6, r3, lsr #31
	mul	r6, r3, r7
.Ltmp105:
	.loc	2 222 39 is_stmt 1              @ h264_dec/h264_dec.c:222:39
	mov	r3, #210
	sub	r10, r5, r6
.Ltmp106:
	@DEBUG_VALUE: h264_dec_decode_one_macroblock:ii1 <- $r10
	.loc	2 0 0 is_stmt 0                 @ h264_dec/h264_dec.c:0:0
	smull	r6, r5, r0, r1
	ldr	r1, [sp, #64]                   @ 4-byte Reload
.Ltmp107:
	.loc	2 222 39                        @ h264_dec/h264_dec.c:222:39
	orr	r3, r3, #3840
.Ltmp108:
	.loc	2 0 0                           @ h264_dec/h264_dec.c:0:0
	add	r6, r5, r0
	asr	r5, r6, #5
	add	r6, r5, r6, lsr #31
	mul	r5, r6, r7
	sub	lr, r0, r5
.Ltmp109:
	@DEBUG_VALUE: h264_dec_decode_one_macroblock:jj1 <- $lr
	ldr	r0, [r11, #-60]                 @ 4-byte Reload
	and	r6, r8, r0
.Ltmp110:
	@DEBUG_VALUE: h264_dec_decode_one_macroblock:jf1 <- $r6
	ldr	r0, [r11, #-36]                 @ 4-byte Reload
	mov	r8, #90
.Ltmp111:
	sub	r5, r0, r6
.Ltmp112:
	@DEBUG_VALUE: h264_dec_decode_one_macroblock:jf0 <- $r5
	ldr	r0, [sp, #8]                    @ 4-byte Reload
	and	r7, r1, r0
.Ltmp113:
	@DEBUG_VALUE: h264_dec_decode_one_macroblock:if1 <- $r7
	ldr	r0, [r11, #-56]                 @ 4-byte Reload
.Ltmp114:
	.loc	2 222 39                        @ h264_dec/h264_dec.c:222:39
	ldr	r1, .LCPI2_3
.Ltmp115:
	.loc	2 0 0                           @ h264_dec/h264_dec.c:0:0
	sub	r4, r0, r7
.Ltmp116:
	@DEBUG_VALUE: h264_dec_decode_one_macroblock:if0 <- $r4
	.loc	2 222 39                        @ h264_dec/h264_dec.c:222:39
	ldr	r0, [r11, #-52]                 @ 4-byte Reload
	mla	r2, r0, r3, r1
	.loc	2 223 33 is_stmt 1              @ h264_dec/h264_dec.c:223:33
	mul	r3, r7, r5
	.loc	2 222 39                        @ h264_dec/h264_dec.c:222:39
	mla	r0, r12, r8, r2
	.loc	2 223 41                        @ h264_dec/h264_dec.c:223:41
	add	r1, r0, r10, lsl #1
	.loc	2 222 39                        @ h264_dec/h264_dec.c:222:39
	add	r0, r0, r9, lsl #1
	.loc	2 223 41                        @ h264_dec/h264_dec.c:223:41
	ldrsh	r1, [r1]
	.loc	2 222 39                        @ h264_dec/h264_dec.c:222:39
	ldrsh	r0, [r0]
	.loc	2 223 39                        @ h264_dec/h264_dec.c:223:39
	mul	r12, r3, r1
.Ltmp117:
	.loc	2 222 31                        @ h264_dec/h264_dec.c:222:31
	mul	r1, r4, r5
	.loc	2 223 27                        @ h264_dec/h264_dec.c:223:27
	mla	r3, r1, r0, r12
	.loc	2 224 41                        @ h264_dec/h264_dec.c:224:41
	mla	r0, lr, r8, r2
	.loc	2 224 33 is_stmt 0              @ h264_dec/h264_dec.c:224:33
	mul	r2, r4, r6
	.loc	2 224 41                        @ h264_dec/h264_dec.c:224:41
	add	r1, r0, r9, lsl #1
	.loc	2 225 41 is_stmt 1              @ h264_dec/h264_dec.c:225:41
	add	r0, r0, r10, lsl #1
	.loc	2 224 41                        @ h264_dec/h264_dec.c:224:41
	ldrsh	r1, [r1]
	.loc	2 225 41                        @ h264_dec/h264_dec.c:225:41
	ldrsh	r0, [r0]
	.loc	2 224 27                        @ h264_dec/h264_dec.c:224:27
	mla	r5, r2, r1, r3
.Ltmp118:
	.loc	2 225 33                        @ h264_dec/h264_dec.c:225:33
	mul	r1, r7, r6
	mov	r7, #31
.Ltmp119:
	.loc	2 225 27 is_stmt 0              @ h264_dec/h264_dec.c:225:27
	mla	r2, r1, r0, r5
	.loc	2 226 27 is_stmt 1              @ h264_dec/h264_dec.c:226:27
	ldr	r0, [sp, #12]                   @ 4-byte Reload
	.loc	2 226 34 is_stmt 0              @ h264_dec/h264_dec.c:226:34
	ldr	r1, [sp, #16]                   @ 4-byte Reload
	orr	r7, r7, #256
	.loc	2 226 27                        @ h264_dec/h264_dec.c:226:27
	add	r0, r2, r0
	.loc	2 226 34                        @ h264_dec/h264_dec.c:226:34
	bl	__divsi3
.Ltmp120:
	.loc	2 222 23 is_stmt 1              @ h264_dec/h264_dec.c:222:23
	ldr	r1, [sp, #20]                   @ 4-byte Reload
	ldr	r2, [r11, #-44]                 @ 4-byte Reload
	strb	r0, [r1, r2]
	b	.LBB2_13
.Ltmp121:
.LBB2_45:                               @ %if.end1264
                                        @   in Loop: Header=BB2_8 Depth=3
	@DEBUG_VALUE: h264_dec_decode_one_macroblock:jj <- $r1
	@DEBUG_VALUE: h264_dec_decode_one_macroblock:pred_dir <- -1
	@DEBUG_VALUE: h264_dec_decode_one_macroblock:mv_mode <- 1
	@DEBUG_VALUE: h264_dec_decode_one_macroblock:ioff <- 0
	@DEBUG_VALUE: h264_dec_decode_one_macroblock:joff <- 0
	@DEBUG_VALUE: h264_dec_decode_one_macroblock:intra_prediction <- 0
	@DEBUG_VALUE: h264_dec_decode_one_macroblock:f2_x <- [DW_OP_plus_uconst 8] [$sp+0]
	@DEBUG_VALUE: h264_dec_decode_one_macroblock:f4 <- [DW_OP_plus_uconst 12] [$sp+0]
	@DEBUG_VALUE: h264_dec_decode_one_macroblock:f2_y <- [DW_OP_constu 60, DW_OP_minus] [$r11+0]
	@DEBUG_VALUE: h264_dec_decode_one_macroblock:f3 <- [DW_OP_plus_uconst 16] [$sp+0]
	@DEBUG_VALUE: h264_dec_decode_one_macroblock:f1_x <- [DW_OP_constu 56, DW_OP_minus] [$r11+0]
	@DEBUG_VALUE: h264_dec_decode_one_macroblock:f1_y <- [DW_OP_constu 36, DW_OP_minus] [$r11+0]
	@DEBUG_VALUE: h264_dec_decode_one_macroblock:img <- [DW_OP_constu 32, DW_OP_minus] [$r11+0]
	@DEBUG_VALUE: h264_dec_decode_one_macroblock:residue_transform_flag <- 0
	@DEBUG_VALUE: h264_dec_decode_one_macroblock:curr_mb_field <- 0
	@DEBUG_VALUE: h264_dec_decode_one_macroblock:direct_pdir <- -1
	@DEBUG_VALUE: h264_dec_decode_one_macroblock:max_y_cr <- 287
	@DEBUG_VALUE: h264_dec_decode_one_macroblock:smb <- 0
	@DEBUG_VALUE: h264_dec_decode_one_macroblock:active_pps_weighted_bipred_idc <- 0
	@DEBUG_VALUE: h264_dec_decode_one_macroblock:active_pps_weighted_pred_flag <- 0
	@DEBUG_VALUE: h264_dec_decode_one_macroblock:active_sps_chroma_format_idc <- 1
	@DEBUG_VALUE: h264_dec_decode_one_macroblock:dec_picture_ref_idx <- 0
	@DEBUG_VALUE: h264_dec_decode_one_macroblock:mb_nr <- 0
	@DEBUG_VALUE: h264_dec_decode_one_macroblock:bw_ref_idx <- -1
	@DEBUG_VALUE: h264_dec_decode_one_macroblock:fw_ref_idx <- -1
	@DEBUG_VALUE: h264_dec_decode_one_macroblock:bw_refframe <- -1
	@DEBUG_VALUE: h264_dec_decode_one_macroblock:fw_refframe <- -1
	@DEBUG_VALUE: h264_dec_decode_one_macroblock:fw_pred <- 0
	@DEBUG_VALUE: h264_dec_decode_one_macroblock:bw_pred <- 0
	@DEBUG_VALUE: h264_dec_decode_one_macroblock:j <- 0
	@DEBUG_VALUE: h264_dec_decode_one_macroblock:i <- 0
	.loc	2 0 23 is_stmt 0                @ h264_dec/h264_dec.c:0:23
	ldr	r12, .LCPI2_4
	mov	lr, #0
	@DEBUG_VALUE: h264_dec_decode_one_macroblock:mb_nr <- 0
.Ltmp122:
	@DEBUG_VALUE: h264_dec_decode_one_macroblock:bw_ref_idx <- undef
	@DEBUG_VALUE: h264_dec_decode_one_macroblock:fw_ref_idx <- undef
	@DEBUG_VALUE: h264_dec_decode_one_macroblock:fw_pred <- undef
	@DEBUG_VALUE: h264_dec_decode_one_macroblock:bw_pred <- undef
	@DEBUG_VALUE: h264_dec_decode_one_macroblock:ii <- 0
	b	.LBB2_47
.Ltmp123:
.LBB2_46:                               @ %for.end1290
                                        @   in Loop: Header=BB2_47 Depth=4
	@DEBUG_VALUE: h264_dec_decode_one_macroblock:jj <- $r2
	@DEBUG_VALUE: h264_dec_decode_one_macroblock:ii <- $lr
	@DEBUG_VALUE: h264_dec_decode_one_macroblock:pred_dir <- -1
	@DEBUG_VALUE: h264_dec_decode_one_macroblock:mv_mode <- 1
	@DEBUG_VALUE: h264_dec_decode_one_macroblock:ioff <- 0
	@DEBUG_VALUE: h264_dec_decode_one_macroblock:joff <- 0
	@DEBUG_VALUE: h264_dec_decode_one_macroblock:intra_prediction <- 0
	@DEBUG_VALUE: h264_dec_decode_one_macroblock:f2_x <- [DW_OP_plus_uconst 8] [$sp+0]
	@DEBUG_VALUE: h264_dec_decode_one_macroblock:f4 <- [DW_OP_plus_uconst 12] [$sp+0]
	@DEBUG_VALUE: h264_dec_decode_one_macroblock:f2_y <- [DW_OP_constu 60, DW_OP_minus] [$r11+0]
	@DEBUG_VALUE: h264_dec_decode_one_macroblock:f3 <- [DW_OP_plus_uconst 16] [$sp+0]
	@DEBUG_VALUE: h264_dec_decode_one_macroblock:f1_x <- [DW_OP_constu 56, DW_OP_minus] [$r11+0]
	@DEBUG_VALUE: h264_dec_decode_one_macroblock:f1_y <- [DW_OP_constu 36, DW_OP_minus] [$r11+0]
	@DEBUG_VALUE: h264_dec_decode_one_macroblock:img <- [DW_OP_constu 32, DW_OP_minus] [$r11+0]
	@DEBUG_VALUE: h264_dec_decode_one_macroblock:residue_transform_flag <- 0
	@DEBUG_VALUE: h264_dec_decode_one_macroblock:curr_mb_field <- 0
	@DEBUG_VALUE: h264_dec_decode_one_macroblock:direct_pdir <- -1
	@DEBUG_VALUE: h264_dec_decode_one_macroblock:max_y_cr <- 287
	@DEBUG_VALUE: h264_dec_decode_one_macroblock:smb <- 0
	@DEBUG_VALUE: h264_dec_decode_one_macroblock:active_pps_weighted_bipred_idc <- 0
	@DEBUG_VALUE: h264_dec_decode_one_macroblock:active_pps_weighted_pred_flag <- 0
	@DEBUG_VALUE: h264_dec_decode_one_macroblock:active_sps_chroma_format_idc <- 1
	@DEBUG_VALUE: h264_dec_decode_one_macroblock:dec_picture_ref_idx <- 0
	@DEBUG_VALUE: h264_dec_decode_one_macroblock:mb_nr <- 0
	@DEBUG_VALUE: h264_dec_decode_one_macroblock:bw_refframe <- -1
	@DEBUG_VALUE: h264_dec_decode_one_macroblock:fw_refframe <- -1
	@DEBUG_VALUE: h264_dec_decode_one_macroblock:j <- 0
	@DEBUG_VALUE: h264_dec_decode_one_macroblock:i <- 0
	mov	r7, #31
.Ltmp124:
	.loc	2 546 13 is_stmt 1              @ h264_dec/h264_dec.c:546:13
	add	r12, r12, #64
	.loc	2 546 37 is_stmt 0              @ h264_dec/h264_dec.c:546:37
	add	lr, lr, #1
.Ltmp125:
	@DEBUG_VALUE: h264_dec_decode_one_macroblock:ii <- $lr
	.loc	2 0 37                          @ h264_dec/h264_dec.c:0:37
	orr	r7, r7, #256
.Ltmp126:
.LBB2_47:                               @ %for.cond1267
                                        @   Parent Loop BB2_2 Depth=1
                                        @     Parent Loop BB2_5 Depth=2
                                        @       Parent Loop BB2_8 Depth=3
                                        @ =>      This Loop Header: Depth=4
                                        @           Child Loop BB2_49 Depth 5
	@DEBUG_VALUE: h264_dec_decode_one_macroblock:pred_dir <- -1
	@DEBUG_VALUE: h264_dec_decode_one_macroblock:mv_mode <- 1
	@DEBUG_VALUE: h264_dec_decode_one_macroblock:ioff <- 0
	@DEBUG_VALUE: h264_dec_decode_one_macroblock:joff <- 0
	@DEBUG_VALUE: h264_dec_decode_one_macroblock:intra_prediction <- 0
	@DEBUG_VALUE: h264_dec_decode_one_macroblock:f2_x <- [DW_OP_plus_uconst 8] [$sp+0]
	@DEBUG_VALUE: h264_dec_decode_one_macroblock:f4 <- [DW_OP_plus_uconst 12] [$sp+0]
	@DEBUG_VALUE: h264_dec_decode_one_macroblock:f2_y <- [DW_OP_constu 60, DW_OP_minus] [$r11+0]
	@DEBUG_VALUE: h264_dec_decode_one_macroblock:f3 <- [DW_OP_plus_uconst 16] [$sp+0]
	@DEBUG_VALUE: h264_dec_decode_one_macroblock:f1_x <- [DW_OP_constu 56, DW_OP_minus] [$r11+0]
	@DEBUG_VALUE: h264_dec_decode_one_macroblock:f1_y <- [DW_OP_constu 36, DW_OP_minus] [$r11+0]
	@DEBUG_VALUE: h264_dec_decode_one_macroblock:img <- [DW_OP_constu 32, DW_OP_minus] [$r11+0]
	@DEBUG_VALUE: h264_dec_decode_one_macroblock:residue_transform_flag <- 0
	@DEBUG_VALUE: h264_dec_decode_one_macroblock:curr_mb_field <- 0
	@DEBUG_VALUE: h264_dec_decode_one_macroblock:direct_pdir <- -1
	@DEBUG_VALUE: h264_dec_decode_one_macroblock:max_y_cr <- 287
	@DEBUG_VALUE: h264_dec_decode_one_macroblock:smb <- 0
	@DEBUG_VALUE: h264_dec_decode_one_macroblock:active_pps_weighted_bipred_idc <- 0
	@DEBUG_VALUE: h264_dec_decode_one_macroblock:active_pps_weighted_pred_flag <- 0
	@DEBUG_VALUE: h264_dec_decode_one_macroblock:active_sps_chroma_format_idc <- 1
	@DEBUG_VALUE: h264_dec_decode_one_macroblock:dec_picture_ref_idx <- 0
	@DEBUG_VALUE: h264_dec_decode_one_macroblock:mb_nr <- 0
	@DEBUG_VALUE: h264_dec_decode_one_macroblock:bw_refframe <- -1
	@DEBUG_VALUE: h264_dec_decode_one_macroblock:fw_refframe <- -1
	@DEBUG_VALUE: h264_dec_decode_one_macroblock:j <- 0
	@DEBUG_VALUE: h264_dec_decode_one_macroblock:i <- 0
	ldr	r1, [sp]                        @ 4-byte Reload
.Ltmp127:
	@DEBUG_VALUE: h264_dec_decode_one_macroblock:ii <- $lr
	.loc	2 546 13                        @ h264_dec/h264_dec.c:546:13
	cmp	lr, #4
	beq	.LBB2_7
.Ltmp128:
@ %bb.48:                               @ %for.body1270
                                        @   in Loop: Header=BB2_47 Depth=4
	@DEBUG_VALUE: h264_dec_decode_one_macroblock:ii <- $lr
	@DEBUG_VALUE: h264_dec_decode_one_macroblock:pred_dir <- -1
	@DEBUG_VALUE: h264_dec_decode_one_macroblock:mv_mode <- 1
	@DEBUG_VALUE: h264_dec_decode_one_macroblock:ioff <- 0
	@DEBUG_VALUE: h264_dec_decode_one_macroblock:joff <- 0
	@DEBUG_VALUE: h264_dec_decode_one_macroblock:intra_prediction <- 0
	@DEBUG_VALUE: h264_dec_decode_one_macroblock:f2_x <- [DW_OP_plus_uconst 8] [$sp+0]
	@DEBUG_VALUE: h264_dec_decode_one_macroblock:f4 <- [DW_OP_plus_uconst 12] [$sp+0]
	@DEBUG_VALUE: h264_dec_decode_one_macroblock:f2_y <- [DW_OP_constu 60, DW_OP_minus] [$r11+0]
	@DEBUG_VALUE: h264_dec_decode_one_macroblock:f3 <- [DW_OP_plus_uconst 16] [$sp+0]
	@DEBUG_VALUE: h264_dec_decode_one_macroblock:f1_x <- [DW_OP_constu 56, DW_OP_minus] [$r11+0]
	@DEBUG_VALUE: h264_dec_decode_one_macroblock:f1_y <- [DW_OP_constu 36, DW_OP_minus] [$r11+0]
	@DEBUG_VALUE: h264_dec_decode_one_macroblock:img <- [DW_OP_constu 32, DW_OP_minus] [$r11+0]
	@DEBUG_VALUE: h264_dec_decode_one_macroblock:residue_transform_flag <- 0
	@DEBUG_VALUE: h264_dec_decode_one_macroblock:curr_mb_field <- 0
	@DEBUG_VALUE: h264_dec_decode_one_macroblock:direct_pdir <- -1
	@DEBUG_VALUE: h264_dec_decode_one_macroblock:max_y_cr <- 287
	@DEBUG_VALUE: h264_dec_decode_one_macroblock:smb <- 0
	@DEBUG_VALUE: h264_dec_decode_one_macroblock:active_pps_weighted_bipred_idc <- 0
	@DEBUG_VALUE: h264_dec_decode_one_macroblock:active_pps_weighted_pred_flag <- 0
	@DEBUG_VALUE: h264_dec_decode_one_macroblock:active_sps_chroma_format_idc <- 1
	@DEBUG_VALUE: h264_dec_decode_one_macroblock:dec_picture_ref_idx <- 0
	@DEBUG_VALUE: h264_dec_decode_one_macroblock:mb_nr <- 0
	@DEBUG_VALUE: h264_dec_decode_one_macroblock:bw_refframe <- -1
	@DEBUG_VALUE: h264_dec_decode_one_macroblock:fw_refframe <- -1
	@DEBUG_VALUE: h264_dec_decode_one_macroblock:j <- 0
	@DEBUG_VALUE: h264_dec_decode_one_macroblock:i <- 0
	.loc	2 0 13                          @ h264_dec/h264_dec.c:0:13
	mov	r2, #0
.Ltmp129:
	@DEBUG_VALUE: h264_dec_decode_one_macroblock:jj <- 0
	@DEBUG_VALUE: h264_dec_decode_one_macroblock:jj <- $r2
	.loc	2 549 15 is_stmt 1              @ h264_dec/h264_dec.c:549:15
	cmp	r2, #4
	beq	.LBB2_46
.Ltmp130:
.LBB2_49:                               @ %for.body1274
                                        @   Parent Loop BB2_2 Depth=1
                                        @     Parent Loop BB2_5 Depth=2
                                        @       Parent Loop BB2_8 Depth=3
                                        @         Parent Loop BB2_47 Depth=4
                                        @ =>        This Inner Loop Header: Depth=5
	@DEBUG_VALUE: h264_dec_decode_one_macroblock:jj <- $r2
	@DEBUG_VALUE: h264_dec_decode_one_macroblock:ii <- $lr
	@DEBUG_VALUE: h264_dec_decode_one_macroblock:pred_dir <- -1
	@DEBUG_VALUE: h264_dec_decode_one_macroblock:mv_mode <- 1
	@DEBUG_VALUE: h264_dec_decode_one_macroblock:ioff <- 0
	@DEBUG_VALUE: h264_dec_decode_one_macroblock:joff <- 0
	@DEBUG_VALUE: h264_dec_decode_one_macroblock:intra_prediction <- 0
	@DEBUG_VALUE: h264_dec_decode_one_macroblock:f2_x <- [DW_OP_plus_uconst 8] [$sp+0]
	@DEBUG_VALUE: h264_dec_decode_one_macroblock:f4 <- [DW_OP_plus_uconst 12] [$sp+0]
	@DEBUG_VALUE: h264_dec_decode_one_macroblock:f2_y <- [DW_OP_constu 60, DW_OP_minus] [$r11+0]
	@DEBUG_VALUE: h264_dec_decode_one_macroblock:f3 <- [DW_OP_plus_uconst 16] [$sp+0]
	@DEBUG_VALUE: h264_dec_decode_one_macroblock:f1_x <- [DW_OP_constu 56, DW_OP_minus] [$r11+0]
	@DEBUG_VALUE: h264_dec_decode_one_macroblock:f1_y <- [DW_OP_constu 36, DW_OP_minus] [$r11+0]
	@DEBUG_VALUE: h264_dec_decode_one_macroblock:img <- [DW_OP_constu 32, DW_OP_minus] [$r11+0]
	@DEBUG_VALUE: h264_dec_decode_one_macroblock:residue_transform_flag <- 0
	@DEBUG_VALUE: h264_dec_decode_one_macroblock:curr_mb_field <- 0
	@DEBUG_VALUE: h264_dec_decode_one_macroblock:direct_pdir <- -1
	@DEBUG_VALUE: h264_dec_decode_one_macroblock:max_y_cr <- 287
	@DEBUG_VALUE: h264_dec_decode_one_macroblock:smb <- 0
	@DEBUG_VALUE: h264_dec_decode_one_macroblock:active_pps_weighted_bipred_idc <- 0
	@DEBUG_VALUE: h264_dec_decode_one_macroblock:active_pps_weighted_pred_flag <- 0
	@DEBUG_VALUE: h264_dec_decode_one_macroblock:active_sps_chroma_format_idc <- 1
	@DEBUG_VALUE: h264_dec_decode_one_macroblock:dec_picture_ref_idx <- 0
	@DEBUG_VALUE: h264_dec_decode_one_macroblock:mb_nr <- 0
	@DEBUG_VALUE: h264_dec_decode_one_macroblock:bw_refframe <- -1
	@DEBUG_VALUE: h264_dec_decode_one_macroblock:fw_refframe <- -1
	@DEBUG_VALUE: h264_dec_decode_one_macroblock:j <- 0
	@DEBUG_VALUE: h264_dec_decode_one_macroblock:i <- 0
	.loc	2 551 19                        @ h264_dec/h264_dec.c:551:19
	ldr	r7, .LCPI2_5
	.loc	2 551 65 is_stmt 0              @ h264_dec/h264_dec.c:551:65
	ldr	r0, [sp, #48]                   @ 4-byte Reload
	.loc	2 551 19                        @ h264_dec/h264_dec.c:551:19
	mov	r6, #3456
	mov	r1, #54
	mla	r3, r8, r6, r7
	.loc	2 551 65                        @ h264_dec/h264_dec.c:551:65
	add	r7, r0, r2
	.loc	2 552 26 is_stmt 1              @ h264_dec/h264_dec.c:552:26
	ldr	r0, [sp, #44]                   @ 4-byte Reload
	.loc	2 551 65                        @ h264_dec/h264_dec.c:551:65
	asr	r6, r7, #31
	add	r6, r7, r6, lsr #26
	bic	r6, r6, #63
	sub	r7, r7, r6
	.loc	2 551 19 is_stmt 0              @ h264_dec/h264_dec.c:551:19
	mla	r6, r7, r1, r3
	.loc	2 552 26 is_stmt 1              @ h264_dec/h264_dec.c:552:26
	add	r3, r0, lr
	.loc	2 552 33 is_stmt 0              @ h264_dec/h264_dec.c:552:33
	ldr	r0, .LCPI2_6
	smull	r7, r5, r3, r0
	asr	r7, r5, #4
	add	r7, r7, r5, lsr #31
	mul	r5, r7, r1
	.loc	2 553 23 is_stmt 1              @ h264_dec/h264_dec.c:553:23
	ldr	r7, [r12, r2, lsl #2]
.Ltmp131:
	.loc	2 549 33                        @ h264_dec/h264_dec.c:549:33
	add	r2, r2, #1
.Ltmp132:
	@DEBUG_VALUE: h264_dec_decode_one_macroblock:jj <- $r2
	.loc	2 552 33                        @ h264_dec/h264_dec.c:552:33
	sub	r3, r3, r5
	.loc	2 553 21                        @ h264_dec/h264_dec.c:553:21
	strb	r7, [r6, r3]
.Ltmp133:
	@DEBUG_VALUE: h264_dec_decode_one_macroblock:jj <- $r2
	.loc	2 549 15                        @ h264_dec/h264_dec.c:549:15
	cmp	r2, #4
	bne	.LBB2_49
	b	.LBB2_46
.Ltmp134:
.LBB2_50:                               @ %for.end1351
	@DEBUG_VALUE: h264_dec_decode_one_macroblock:uv <- $r8
	@DEBUG_VALUE: h264_dec_decode_one_macroblock:f2_x <- [DW_OP_plus_uconst 8] [$sp+0]
	@DEBUG_VALUE: h264_dec_decode_one_macroblock:f4 <- [DW_OP_plus_uconst 12] [$sp+0]
	@DEBUG_VALUE: h264_dec_decode_one_macroblock:f2_y <- [DW_OP_constu 60, DW_OP_minus] [$r11+0]
	@DEBUG_VALUE: h264_dec_decode_one_macroblock:f3 <- [DW_OP_plus_uconst 16] [$sp+0]
	@DEBUG_VALUE: h264_dec_decode_one_macroblock:f1_x <- [DW_OP_constu 56, DW_OP_minus] [$r11+0]
	@DEBUG_VALUE: h264_dec_decode_one_macroblock:f1_y <- [DW_OP_constu 36, DW_OP_minus] [$r11+0]
	@DEBUG_VALUE: h264_dec_decode_one_macroblock:img <- [DW_OP_constu 32, DW_OP_minus] [$r11+0]
	@DEBUG_VALUE: h264_dec_decode_one_macroblock:residue_transform_flag <- 0
	@DEBUG_VALUE: h264_dec_decode_one_macroblock:curr_mb_field <- 0
	@DEBUG_VALUE: h264_dec_decode_one_macroblock:direct_pdir <- -1
	@DEBUG_VALUE: h264_dec_decode_one_macroblock:max_y_cr <- 287
	@DEBUG_VALUE: h264_dec_decode_one_macroblock:smb <- 0
	@DEBUG_VALUE: h264_dec_decode_one_macroblock:active_pps_weighted_bipred_idc <- 0
	@DEBUG_VALUE: h264_dec_decode_one_macroblock:active_pps_weighted_pred_flag <- 0
	@DEBUG_VALUE: h264_dec_decode_one_macroblock:active_sps_chroma_format_idc <- 1
	@DEBUG_VALUE: h264_dec_decode_one_macroblock:dec_picture_ref_idx <- 0
	@DEBUG_VALUE: h264_dec_decode_one_macroblock:mb_nr <- 0
	@DEBUG_VALUE: h264_dec_decode_one_macroblock:bw_ref_idx <- -1
	@DEBUG_VALUE: h264_dec_decode_one_macroblock:fw_ref_idx <- -1
	@DEBUG_VALUE: h264_dec_decode_one_macroblock:bw_refframe <- -1
	@DEBUG_VALUE: h264_dec_decode_one_macroblock:fw_refframe <- -1
	@DEBUG_VALUE: h264_dec_decode_one_macroblock:fw_pred <- 0
	@DEBUG_VALUE: h264_dec_decode_one_macroblock:bw_pred <- 0
	@DEBUG_VALUE: h264_dec_decode_one_macroblock:j <- 0
	@DEBUG_VALUE: h264_dec_decode_one_macroblock:i <- 0
	.loc	2 584 1                         @ h264_dec/h264_dec.c:584:1
	sub	sp, r11, #28
.Ltmp135:
	pop	{r4, r5, r6, r7, r8, r9, r10, r11, lr}
.Ltmp136:
	bx	lr
.Ltmp137:
	.p2align	2
@ %bb.51:
	.loc	2 0 1 is_stmt 0                 @ h264_dec/h264_dec.c:0:1
.LCPI2_0:
	.long	h264_dec_img_mpr
.LCPI2_1:
	.long	h264_dec_mv_array
.LCPI2_2:
	.long	3054198967                      @ 0xb60b60b7
.LCPI2_3:
	.long	h264_dec_list_imgUV
.LCPI2_4:
	.long	h264_dec_img_m7
.LCPI2_5:
	.long	h264_dec_dec_picture_imgUV
.LCPI2_6:
	.long	1272582903                      @ 0x4bda12f7
.Lfunc_end2:
	.size	h264_dec_decode_one_macroblock, .Lfunc_end2-h264_dec_decode_one_macroblock
	.cfi_endproc
	.cantunwind
	.fnend
                                        @ -- End function
	.globl	h264_dec_main                   @ -- Begin function h264_dec_main
	.p2align	2
	.type	h264_dec_main,%function
	.code	32                              @ @h264_dec_main
h264_dec_main:
.Lfunc_begin3:
	.loc	2 592 0 is_stmt 1               @ h264_dec/h264_dec.c:592:0
	.fnstart
	.cfi_startproc
@ %bb.0:                                @ %entry
	push	{r11, lr}
	.cfi_def_cfa_offset 8
	.cfi_offset lr, -4
	.cfi_offset r11, -8
	mov	r11, sp
	.cfi_def_cfa_register r11
.Ltmp138:
	.loc	2 593 3 prologue_end            @ h264_dec/h264_dec.c:593:3
	ldr	r0, .LCPI3_0
	bl	h264_dec_decode_one_macroblock
	.loc	2 594 1                         @ h264_dec/h264_dec.c:594:1
	pop	{r11, lr}
	bx	lr
.Ltmp139:
	.p2align	2
@ %bb.1:
	.loc	2 0 1 is_stmt 0                 @ h264_dec/h264_dec.c:0:1
.LCPI3_0:
	.long	h264_dec_img
.Lfunc_end3:
	.size	h264_dec_main, .Lfunc_end3-h264_dec_main
	.cfi_endproc
	.cantunwind
	.fnend
                                        @ -- End function
	.globl	main                            @ -- Begin function main
	.p2align	2
	.type	main,%function
	.code	32                              @ @main
main:
.Lfunc_begin4:
	.loc	2 598 0 is_stmt 1               @ h264_dec/h264_dec.c:598:0
	.fnstart
	.cfi_startproc
@ %bb.0:                                @ %entry
	push	{r11, lr}
	.cfi_def_cfa_offset 8
	.cfi_offset lr, -4
	.cfi_offset r11, -8
	mov	r11, sp
	.cfi_def_cfa_register r11
.Ltmp140:
	.loc	2 599 3 prologue_end            @ h264_dec/h264_dec.c:599:3
	bl	h264_dec_init
	.loc	2 600 3                         @ h264_dec/h264_dec.c:600:3
	bl	h264_dec_main
	.loc	2 602 12                        @ h264_dec/h264_dec.c:602:12
	bl	h264_dec_return
	.loc	2 602 3 is_stmt 0               @ h264_dec/h264_dec.c:602:3
	pop	{r11, lr}
	bx	lr
.Ltmp141:
.Lfunc_end4:
	.size	main, .Lfunc_end4-main
	.cfi_endproc
	.cantunwind
	.fnend
                                        @ -- End function
	.globl	__absvdi2                       @ -- Begin function __absvdi2
	.p2align	2
	.type	__absvdi2,%function
	.code	32                              @ @__absvdi2
__absvdi2:
.Lfunc_begin5:
	.file	4 "/workspaces/llvmta/testcases/libraries/builtinsint/buildarmv4" "../absvdi2.c" md5 0xf0fa545ed84eab29322431dd903e1bd2
	.loc	4 23 0 is_stmt 1                @ ../absvdi2.c:23:0
	.fnstart
	.cfi_startproc
@ %bb.0:                                @ %entry
	.loc	4 25 11 prologue_end            @ ../absvdi2.c:25:11
	eor	r2, r1, #-2147483648
	orrs	r2, r0, r2
	.loc	4 25 9 is_stmt 0                @ ../absvdi2.c:25:9
	beq	.LBB5_2
@ %bb.1:                                @ %if.end
	.loc	4 28 20 is_stmt 1               @ ../absvdi2.c:28:20
	adds	r0, r0, r1, asr #31
	adc	r2, r1, r1, asr #31
	eor	r0, r0, r1, asr #31
	eor	r1, r2, r1, asr #31
	.loc	4 28 5 is_stmt 0                @ ../absvdi2.c:28:5
	bx	lr
.LBB5_2:                                @ %if.then
	push	{r11, lr}
	.cfi_def_cfa_offset 8
	.cfi_offset lr, -4
	.cfi_offset r11, -8
	mov	r11, sp
	.cfi_def_cfa_register r11
	.loc	4 26 9 is_stmt 1                @ ../absvdi2.c:26:9
	ldr	r0, .LCPI5_0
	ldr	r2, .LCPI5_1
	mov	r1, #26
	bl	compilerrt_abort_impl
.Ltmp142:
	.p2align	2
@ %bb.3:
	.loc	4 0 9 is_stmt 0                 @ ../absvdi2.c:0:9
.LCPI5_0:
	.long	.L.str
.LCPI5_1:
	.long	.L__func__.__absvdi2
.Lfunc_end5:
	.size	__absvdi2, .Lfunc_end5-__absvdi2
	.cfi_endproc
	.cantunwind
	.fnend
                                        @ -- End function
	.hidden	compilerrt_abort_impl           @ -- Begin function compilerrt_abort_impl
	.weak	compilerrt_abort_impl
	.p2align	2
	.type	compilerrt_abort_impl,%function
	.code	32                              @ @compilerrt_abort_impl
compilerrt_abort_impl:
.Lfunc_begin6:
	.fnstart
	.cfi_startproc
@ %bb.0:                                @ %entry
.Lfunc_end6:
	.size	compilerrt_abort_impl, .Lfunc_end6-compilerrt_abort_impl
	.cfi_endproc
	.cantunwind
	.fnend
                                        @ -- End function
	.globl	__absvsi2                       @ -- Begin function __absvsi2
	.p2align	2
	.type	__absvsi2,%function
	.code	32                              @ @__absvsi2
__absvsi2:
.Lfunc_begin7:
	.file	5 "/workspaces/llvmta/testcases/libraries/builtinsint/buildarmv4" "../absvsi2.c" md5 0x4c623fefc2c7ed3929c6e73514b667d1
	.loc	5 23 0 is_stmt 1                @ ../absvsi2.c:23:0
	.fnstart
	.cfi_startproc
@ %bb.0:                                @ %entry
	.loc	5 25 9 prologue_end             @ ../absvsi2.c:25:9
	cmp	r0, #-2147483648
	beq	.LBB7_2
@ %bb.1:                                @ %if.end
	.loc	5 28 20                         @ ../absvsi2.c:28:20
	cmp	r0, #0
	rsbmi	r0, r0, #0
	.loc	5 28 5 is_stmt 0                @ ../absvsi2.c:28:5
	bx	lr
.LBB7_2:                                @ %if.then
	push	{r11, lr}
	.cfi_def_cfa_offset 8
	.cfi_offset lr, -4
	.cfi_offset r11, -8
	mov	r11, sp
	.cfi_def_cfa_register r11
	.loc	5 26 9 is_stmt 1                @ ../absvsi2.c:26:9
	ldr	r0, .LCPI7_0
	ldr	r2, .LCPI7_1
	mov	r1, #26
	bl	compilerrt_abort_impl
.Ltmp143:
	.p2align	2
@ %bb.3:
	.loc	5 0 9 is_stmt 0                 @ ../absvsi2.c:0:9
.LCPI7_0:
	.long	.L.str.1
.LCPI7_1:
	.long	.L__func__.__absvsi2
.Lfunc_end7:
	.size	__absvsi2, .Lfunc_end7-__absvsi2
	.cfi_endproc
	.cantunwind
	.fnend
                                        @ -- End function
	.globl	__addvdi3                       @ -- Begin function __addvdi3
	.p2align	2
	.type	__addvdi3,%function
	.code	32                              @ @__addvdi3
__addvdi3:
.Lfunc_begin8:
	.file	6 "/workspaces/llvmta/testcases/libraries/builtinsint/buildarmv4" "../addvdi3.c" md5 0xaa240ee8ce7c28b2c3bcec10a7603d3f
	.loc	6 23 0 is_stmt 1                @ ../addvdi3.c:23:0
	.fnstart
	.cfi_startproc
@ %bb.0:                                @ %entry
	push	{r11, lr}
	.cfi_def_cfa_offset 8
	.cfi_offset lr, -4
	.cfi_offset r11, -8
	mov	r11, sp
	.cfi_def_cfa_register r11
	mov	lr, r0
.Ltmp144:
	.loc	6 24 27 prologue_end            @ ../addvdi3.c:24:27
	adds	r0, r0, r2
	mov	r12, r1
	adc	r1, r1, r3
	.loc	6 25 9                          @ ../addvdi3.c:25:9
	cmp	r3, #0
	bmi	.LBB8_3
@ %bb.1:                                @ %if.then
	.loc	6 27 15                         @ ../addvdi3.c:27:15
	subs	r2, r0, lr
	sbcs	r2, r1, r12
	.loc	6 27 13 is_stmt 0               @ ../addvdi3.c:27:13
	bge	.LBB8_4
@ %bb.2:                                @ %if.then2
	.loc	6 28 13 is_stmt 1               @ ../addvdi3.c:28:13
	ldr	r0, .LCPI8_0
	ldr	r2, .LCPI8_1
	mov	r1, #28
	bl	compilerrt_abort_impl
.LBB8_3:                                @ %if.else
	.loc	6 32 15                         @ ../addvdi3.c:32:15
	subs	r2, r0, lr
	sbcs	r2, r1, r12
	.loc	6 32 13 is_stmt 0               @ ../addvdi3.c:32:13
	bge	.LBB8_5
.LBB8_4:                                @ %if.end6
	.loc	6 35 5 is_stmt 1                @ ../addvdi3.c:35:5
	pop	{r11, lr}
	bx	lr
.LBB8_5:                                @ %if.then4
	.loc	6 33 13                         @ ../addvdi3.c:33:13
	ldr	r0, .LCPI8_0
	ldr	r2, .LCPI8_1
	mov	r1, #33
	bl	compilerrt_abort_impl
.Ltmp145:
	.p2align	2
@ %bb.6:
	.loc	6 0 13 is_stmt 0                @ ../addvdi3.c:0:13
.LCPI8_0:
	.long	.L.str.2
.LCPI8_1:
	.long	.L__func__.__addvdi3
.Lfunc_end8:
	.size	__addvdi3, .Lfunc_end8-__addvdi3
	.cfi_endproc
	.cantunwind
	.fnend
                                        @ -- End function
	.globl	__addvsi3                       @ -- Begin function __addvsi3
	.p2align	2
	.type	__addvsi3,%function
	.code	32                              @ @__addvsi3
__addvsi3:
.Lfunc_begin9:
	.file	7 "/workspaces/llvmta/testcases/libraries/builtinsint/buildarmv4" "../addvsi3.c" md5 0x6cd4d40cc00928f1aaf6f29e299078cd
	.loc	7 23 0 is_stmt 1                @ ../addvsi3.c:23:0
	.fnstart
	.cfi_startproc
@ %bb.0:                                @ %entry
	push	{r11, lr}
	.cfi_def_cfa_offset 8
	.cfi_offset lr, -4
	.cfi_offset r11, -8
	mov	r11, sp
	.cfi_def_cfa_register r11
	mov	r2, r0
.Ltmp146:
	.loc	7 24 27 prologue_end            @ ../addvsi3.c:24:27
	add	r0, r0, r1
	.loc	7 25 9                          @ ../addvsi3.c:25:9
	cmp	r1, #0
	bmi	.LBB9_3
@ %bb.1:                                @ %if.then
	.loc	7 27 13                         @ ../addvsi3.c:27:13
	cmp	r0, r2
	bge	.LBB9_4
@ %bb.2:                                @ %if.then2
	.loc	7 28 13                         @ ../addvsi3.c:28:13
	ldr	r0, .LCPI9_0
	ldr	r2, .LCPI9_1
	mov	r1, #28
	bl	compilerrt_abort_impl
.LBB9_3:                                @ %if.else
	.loc	7 32 13                         @ ../addvsi3.c:32:13
	cmp	r0, r2
	bge	.LBB9_5
.LBB9_4:                                @ %if.end6
	.loc	7 35 5                          @ ../addvsi3.c:35:5
	pop	{r11, lr}
	bx	lr
.LBB9_5:                                @ %if.then4
	.loc	7 33 13                         @ ../addvsi3.c:33:13
	ldr	r0, .LCPI9_0
	ldr	r2, .LCPI9_1
	mov	r1, #33
	bl	compilerrt_abort_impl
.Ltmp147:
	.p2align	2
@ %bb.6:
	.loc	7 0 13 is_stmt 0                @ ../addvsi3.c:0:13
.LCPI9_0:
	.long	.L.str.3
.LCPI9_1:
	.long	.L__func__.__addvsi3
.Lfunc_end9:
	.size	__addvsi3, .Lfunc_end9-__addvsi3
	.cfi_endproc
	.cantunwind
	.fnend
                                        @ -- End function
	.globl	__ashldi3                       @ -- Begin function __ashldi3
	.p2align	2
	.type	__ashldi3,%function
	.code	32                              @ @__ashldi3
__ashldi3:
.Lfunc_begin10:
	.file	8 "/workspaces/llvmta/testcases/libraries/builtinsint/buildarmv4" "../ashldi3.c" md5 0xae5236ddcefaf3e5efc4feba69d334b1
	.loc	8 25 0 is_stmt 1                @ ../ashldi3.c:25:0
	.fnstart
	.cfi_startproc
@ %bb.0:                                @ %entry
	sub	sp, sp, #16
	.cfi_def_cfa_offset 16
.Ltmp148:
	.loc	8 30 9 prologue_end             @ ../ashldi3.c:30:9
	tst	r2, #32
	.loc	8 29 15                         @ ../ashldi3.c:29:15
	str	r1, [sp, #12]
	str	r0, [sp, #8]
	.loc	8 30 9                          @ ../ashldi3.c:30:9
	bne	.LBB10_3
@ %bb.1:                                @ %if.else
	.loc	8 37 13                         @ ../ashldi3.c:37:13
	cmp	r2, #0
	beq	.LBB10_5
@ %bb.2:                                @ %if.end
	.loc	8 40 34                         @ ../ashldi3.c:40:34
	ldr	r1, [sp, #12]
	.loc	8 39 33                         @ ../ashldi3.c:39:33
	ldr	r0, [sp, #8]
	.loc	8 39 37 is_stmt 0               @ ../ashldi3.c:39:37
	lsl	r3, r0, r2
	.loc	8 40 39 is_stmt 1               @ ../ashldi3.c:40:39
	lsl	r1, r1, r2
	.loc	8 40 77 is_stmt 0               @ ../ashldi3.c:40:77
	rsb	r2, r2, #32
	.loc	8 40 45                         @ ../ashldi3.c:40:45
	orr	r0, r1, r0, lsr r2
	.loc	8 39 23 is_stmt 1               @ ../ashldi3.c:39:23
	str	r3, [sp]
	b	.LBB10_4
.LBB10_3:                               @ %if.then
	.loc	8 33 33                         @ ../ashldi3.c:33:33
	ldr	r1, [sp, #8]
	mov	r0, #0
	.loc	8 32 22                         @ ../ashldi3.c:32:22
	str	r0, [sp]
	.loc	8 33 43                         @ ../ashldi3.c:33:43
	sub	r0, r2, #32
	.loc	8 33 37 is_stmt 0               @ ../ashldi3.c:33:37
	lsl	r0, r1, r0
.LBB10_4:                               @ %if.end18
	.loc	8 0 0                           @ ../ashldi3.c:0:0
	str	r0, [sp, #4]
	.loc	8 42 19 is_stmt 1               @ ../ashldi3.c:42:19
	ldm	sp, {r0, r1}
.LBB10_5:                               @ %return
	.loc	8 43 1                          @ ../ashldi3.c:43:1
	add	sp, sp, #16
	bx	lr
.Ltmp149:
.Lfunc_end10:
	.size	__ashldi3, .Lfunc_end10-__ashldi3
	.cfi_endproc
	.cantunwind
	.fnend
                                        @ -- End function
	.globl	__ashrdi3                       @ -- Begin function __ashrdi3
	.p2align	2
	.type	__ashrdi3,%function
	.code	32                              @ @__ashrdi3
__ashrdi3:
.Lfunc_begin11:
	.file	9 "/workspaces/llvmta/testcases/libraries/builtinsint/buildarmv4" "../ashrdi3.c" md5 0xdf60b7a82095e7d7b5c11e1095a5679a
	.loc	9 25 0                          @ ../ashrdi3.c:25:0
	.fnstart
	.cfi_startproc
@ %bb.0:                                @ %entry
	sub	sp, sp, #16
	.cfi_def_cfa_offset 16
.Ltmp150:
	.loc	9 30 9 prologue_end             @ ../ashrdi3.c:30:9
	tst	r2, #32
	.loc	9 29 15                         @ ../ashrdi3.c:29:15
	str	r1, [sp, #12]
	str	r0, [sp, #8]
	.loc	9 30 9                          @ ../ashrdi3.c:30:9
	bne	.LBB11_3
@ %bb.1:                                @ %if.else
	.loc	9 38 13                         @ ../ashrdi3.c:38:13
	cmp	r2, #0
	beq	.LBB11_5
@ %bb.2:                                @ %if.end
	.loc	9 40 34                         @ ../ashrdi3.c:40:34
	ldr	r1, [sp, #12]
	.loc	9 41 72                         @ ../ashrdi3.c:41:72
	ldr	r0, [sp, #8]
	.loc	9 40 39                         @ ../ashrdi3.c:40:39
	asr	r3, r1, r2
	.loc	9 40 24 is_stmt 0               @ ../ashrdi3.c:40:24
	str	r3, [sp, #4]
	.loc	9 41 55 is_stmt 1               @ ../ashrdi3.c:41:55
	rsb	r3, r2, #32
	.loc	9 41 38 is_stmt 0               @ ../ashrdi3.c:41:38
	lsl	r1, r1, r3
	.loc	9 41 61                         @ ../ashrdi3.c:41:61
	orr	r0, r1, r0, lsr r2
	b	.LBB11_4
.LBB11_3:                               @ %if.then
	.loc	9 33 33 is_stmt 1               @ ../ashrdi3.c:33:33
	ldr	r0, [sp, #12]
	.loc	9 33 38 is_stmt 0               @ ../ashrdi3.c:33:38
	asr	r1, r0, #31
	.loc	9 33 23                         @ ../ashrdi3.c:33:23
	str	r1, [sp, #4]
	.loc	9 34 43 is_stmt 1               @ ../ashrdi3.c:34:43
	sub	r1, r2, #32
	.loc	9 34 37 is_stmt 0               @ ../ashrdi3.c:34:37
	asr	r0, r0, r1
.LBB11_4:                               @ %if.end21
	.loc	9 0 0                           @ ../ashrdi3.c:0:0
	str	r0, [sp]
	.loc	9 43 19 is_stmt 1               @ ../ashrdi3.c:43:19
	ldm	sp, {r0, r1}
.LBB11_5:                               @ %return
	.loc	9 44 1                          @ ../ashrdi3.c:44:1
	add	sp, sp, #16
	bx	lr
.Ltmp151:
.Lfunc_end11:
	.size	__ashrdi3, .Lfunc_end11-__ashrdi3
	.cfi_endproc
	.cantunwind
	.fnend
                                        @ -- End function
	.globl	__clzdi2                        @ -- Begin function __clzdi2
	.p2align	2
	.type	__clzdi2,%function
	.code	32                              @ @__clzdi2
__clzdi2:
.Lfunc_begin12:
	.file	10 "/workspaces/llvmta/testcases/libraries/builtinsint/buildarmv4" "../clzdi2.c" md5 0x901c40e0319a50689080965b20695c3e
	.loc	10 23 0                         @ ../clzdi2.c:23:0
	.fnstart
	.cfi_startproc
@ %bb.0:                                @ %entry
	push	{r4, r10, r11, lr}
	.cfi_def_cfa_offset 16
	.cfi_offset lr, -4
	.cfi_offset r11, -8
	.cfi_offset r10, -12
	.cfi_offset r4, -16
	add	r11, sp, #8
	.cfi_def_cfa r11, 8
	sub	sp, sp, #8
.Ltmp152:
	.loc	10 27 42 prologue_end           @ ../clzdi2.c:27:42
	cmp	r1, #0
	.loc	10 25 11                        @ ../clzdi2.c:25:11
	stm	sp, {r0, r1}
	mov	r4, r1
	.loc	10 27 42                        @ ../clzdi2.c:27:42
	movne	r0, r1
	.loc	10 27 12 is_stmt 0              @ ../clzdi2.c:27:12
	cmp	r0, #0
	beq	.LBB12_2
@ %bb.1:                                @ %cond.false
	bl	__clzsi2
	b	.LBB12_3
.LBB12_2:
	.loc	10 0 12                         @ ../clzdi2.c:0:12
	mov	r0, #32
.LBB12_3:                               @ %cond.end
	.loc	10 27 59                        @ ../clzdi2.c:27:59
	cmp	r4, #0
	addeq	r0, r0, #32
	.loc	10 27 5                         @ ../clzdi2.c:27:5
	sub	sp, r11, #8
	pop	{r4, r10, r11, lr}
	bx	lr
.Ltmp153:
.Lfunc_end12:
	.size	__clzdi2, .Lfunc_end12-__clzdi2
	.cfi_endproc
	.cantunwind
	.fnend
                                        @ -- End function
	.globl	__clzsi2                        @ -- Begin function __clzsi2
	.p2align	2
	.type	__clzsi2,%function
	.code	32                              @ @__clzsi2
__clzsi2:
.Lfunc_begin13:
	.file	11 "/workspaces/llvmta/testcases/libraries/builtinsint/buildarmv4" "../clzsi2.c" md5 0x9b0156c55102d3143e17bdf85bafbc30
	.loc	11 23 0 is_stmt 1               @ ../clzsi2.c:23:0
	.fnstart
	.cfi_startproc
@ %bb.0:                                @ %entry
	push	{r4, r5, r11, lr}
	.cfi_def_cfa_offset 16
	.cfi_offset lr, -4
	.cfi_offset r11, -8
	.cfi_offset r5, -12
	.cfi_offset r4, -16
	add	r11, sp, #8
	.cfi_def_cfa r11, 8
	mov	r12, #0
	cmp	r0, #65536
	mov	r2, #16
	mov	r3, #65280
	movlo	r12, #1
.Ltmp154:
	.loc	11 26 14 prologue_end           @ ../clzsi2.c:26:14
	sub	r2, r2, r12, lsl #4
	.loc	11 29 13                        @ ../clzsi2.c:29:13
	and	r3, r3, r0, lsr r2
	.loc	11 26 7                         @ ../clzsi2.c:26:7
	lsr	r0, r0, r2
	mov	r2, #240
	.loc	11 29 13                        @ ../clzsi2.c:29:13
	rsbs	r1, r3, #0
	adc	lr, r3, r1
	mov	r3, #8
	.loc	11 30 13                        @ ../clzsi2.c:30:13
	sub	r3, r3, lr, lsl #3
	.loc	11 33 13                        @ ../clzsi2.c:33:13
	and	r2, r2, r0, lsr r3
	.loc	11 30 7                         @ ../clzsi2.c:30:7
	lsr	r0, r0, r3
	mov	r3, #12
	.loc	11 33 13                        @ ../clzsi2.c:33:13
	rsbs	r1, r2, #0
	adc	r1, r2, r1
	mov	r2, #4
	.loc	11 34 13                        @ ../clzsi2.c:34:13
	sub	r2, r2, r1, lsl #2
	.loc	11 37 13                        @ ../clzsi2.c:37:13
	and	r3, r3, r0, lsr r2
	.loc	11 34 7                         @ ../clzsi2.c:34:7
	lsr	r0, r0, r2
	.loc	11 37 13                        @ ../clzsi2.c:37:13
	rsbs	r4, r3, #0
	adc	r3, r3, r4
	mov	r4, #2
	.loc	11 38 13                        @ ../clzsi2.c:38:13
	sub	r5, r4, r3, lsl #1
	.loc	11 52 20                        @ ../clzsi2.c:52:20
	sub	r2, r4, r0, lsr r5
	.loc	11 38 7                         @ ../clzsi2.c:38:7
	lsr	r0, r0, r5
	mvn	r4, #1
	.loc	11 52 37                        @ ../clzsi2.c:52:37
	orr	r0, r4, r0, lsr #1
	add	r0, r0, #1
	.loc	11 52 25 is_stmt 0              @ ../clzsi2.c:52:25
	and	r0, r2, r0
	.loc	11 25 40 is_stmt 1              @ ../clzsi2.c:25:40
	lsl	r2, r12, #4
	.loc	11 31 7                         @ ../clzsi2.c:31:7
	orr	r2, r2, lr, lsl #3
	.loc	11 35 7                         @ ../clzsi2.c:35:7
	orr	r1, r2, r1, lsl #2
	.loc	11 39 7                         @ ../clzsi2.c:39:7
	orr	r1, r1, r3, lsl #1
	.loc	11 52 14                        @ ../clzsi2.c:52:14
	add	r0, r1, r0
	.loc	11 52 5 is_stmt 0               @ ../clzsi2.c:52:5
	pop	{r4, r5, r11, lr}
	bx	lr
.Ltmp155:
.Lfunc_end13:
	.size	__clzsi2, .Lfunc_end13-__clzsi2
	.cfi_endproc
	.cantunwind
	.fnend
                                        @ -- End function
	.globl	__cmpdi2                        @ -- Begin function __cmpdi2
	.p2align	2
	.type	__cmpdi2,%function
	.code	32                              @ @__cmpdi2
__cmpdi2:
.Lfunc_begin14:
	.file	12 "/workspaces/llvmta/testcases/libraries/builtinsint/buildarmv4" "../cmpdi2.c" md5 0x79ec8a4b383c8374d228cd0869637319
	.loc	12 24 0 is_stmt 1               @ ../cmpdi2.c:24:0
	.fnstart
	.cfi_startproc
@ %bb.0:                                @ %entry
	sub	sp, sp, #16
	.cfi_def_cfa_offset 16
.Ltmp156:
	.loc	12 26 11 prologue_end           @ ../cmpdi2.c:26:11
	str	r0, [sp, #8]
	mov	r0, #0
	.loc	12 29 9                         @ ../cmpdi2.c:29:9
	cmp	r1, r3
	.loc	12 26 11                        @ ../cmpdi2.c:26:11
	str	r1, [sp, #12]
	.loc	12 28 11                        @ ../cmpdi2.c:28:11
	stm	sp, {r2, r3}
	.loc	12 29 9                         @ ../cmpdi2.c:29:9
	blt	.LBB14_4
@ %bb.1:                                @ %if.end
	.loc	12 31 24                        @ ../cmpdi2.c:31:24
	ldr	r1, [sp, #4]
	.loc	12 31 13 is_stmt 0              @ ../cmpdi2.c:31:13
	ldr	r2, [sp, #12]
	.loc	12 31 9                         @ ../cmpdi2.c:31:9
	cmp	r2, r1
	movgt	r0, #2
	.loc	12 38 1 is_stmt 1               @ ../cmpdi2.c:38:1
	addgt	sp, sp, #16
	bxgt	lr
.LBB14_2:                               @ %if.end10
	.loc	12 33 23                        @ ../cmpdi2.c:33:23
	ldr	r1, [sp]
	.loc	12 33 13 is_stmt 0              @ ../cmpdi2.c:33:13
	ldr	r2, [sp, #8]
	.loc	12 33 9                         @ ../cmpdi2.c:33:9
	cmp	r2, r1
	blo	.LBB14_4
@ %bb.3:                                @ %if.end16
	.loc	12 35 23 is_stmt 1              @ ../cmpdi2.c:35:23
	ldr	r0, [sp]
	.loc	12 35 13 is_stmt 0              @ ../cmpdi2.c:35:13
	ldr	r1, [sp, #8]
	.loc	12 35 9                         @ ../cmpdi2.c:35:9
	cmp	r1, r0
	mov	r0, #2
	movls	r0, #1
.LBB14_4:                               @ %return
	.loc	12 38 1 is_stmt 1               @ ../cmpdi2.c:38:1
	add	sp, sp, #16
	bx	lr
.Ltmp157:
.Lfunc_end14:
	.size	__cmpdi2, .Lfunc_end14-__cmpdi2
	.cfi_endproc
	.cantunwind
	.fnend
                                        @ -- End function
	.globl	__aeabi_lcmp                    @ -- Begin function __aeabi_lcmp
	.p2align	2
	.type	__aeabi_lcmp,%function
	.code	32                              @ @__aeabi_lcmp
__aeabi_lcmp:
.Lfunc_begin15:
	.loc	12 47 0                         @ ../cmpdi2.c:47:0
	.fnstart
	.cfi_startproc
@ %bb.0:                                @ %entry
	push	{r11, lr}
	.cfi_def_cfa_offset 8
	.cfi_offset lr, -4
	.cfi_offset r11, -8
	mov	r11, sp
	.cfi_def_cfa_register r11
.Ltmp158:
	.loc	12 48 9 prologue_end            @ ../cmpdi2.c:48:9
	bl	__cmpdi2
	.loc	12 48 24 is_stmt 0              @ ../cmpdi2.c:48:24
	sub	r0, r0, #1
	.loc	12 48 2                         @ ../cmpdi2.c:48:2
	pop	{r11, lr}
	bx	lr
.Ltmp159:
.Lfunc_end15:
	.size	__aeabi_lcmp, .Lfunc_end15-__aeabi_lcmp
	.cfi_endproc
	.cantunwind
	.fnend
                                        @ -- End function
	.globl	__ctzdi2                        @ -- Begin function __ctzdi2
	.p2align	2
	.type	__ctzdi2,%function
	.code	32                              @ @__ctzdi2
__ctzdi2:
.Lfunc_begin16:
	.file	13 "/workspaces/llvmta/testcases/libraries/builtinsint/buildarmv4" "../ctzdi2.c" md5 0x0415a3f61808ca646548bc24b48a844a
	.loc	13 23 0 is_stmt 1               @ ../ctzdi2.c:23:0
	.fnstart
	.cfi_startproc
@ %bb.0:                                @ %entry
	sub	sp, sp, #8
	.cfi_def_cfa_offset 8
.Ltmp160:
	.loc	13 27 41 prologue_end           @ ../ctzdi2.c:27:41
	cmp	r0, #0
	.loc	13 25 11                        @ ../ctzdi2.c:25:11
	stm	sp, {r0, r1}
	.loc	13 27 41                        @ ../ctzdi2.c:27:41
	movne	r1, r0
	.loc	13 27 12 is_stmt 0              @ ../ctzdi2.c:27:12
	cmp	r1, #0
	beq	.LBB16_2
@ %bb.1:                                @ %cond.false
	sub	r2, r1, #1
	bic	r1, r2, r1
	ldr	r2, .LCPI16_0
	and	r2, r2, r1, lsr #1
	sub	r1, r1, r2
	ldr	r2, .LCPI16_1
	and	r3, r2, r1, lsr #2
	and	r1, r1, r2
	ldr	r2, .LCPI16_2
	add	r1, r1, r3
	add	r1, r1, r1, lsr #4
	and	r1, r1, r2
	ldr	r2, .LCPI16_3
	mul	r3, r1, r2
	lsr	r1, r3, #24
	b	.LBB16_3
.LBB16_2:
	.loc	13 0 12                         @ ../ctzdi2.c:0:12
	mov	r1, #32
.LBB16_3:                               @ %cond.end
	.loc	13 27 59                        @ ../ctzdi2.c:27:59
	cmp	r0, #0
	addeq	r1, r1, #32
	.loc	13 27 5                         @ ../ctzdi2.c:27:5
	mov	r0, r1
	add	sp, sp, #8
	bx	lr
.Ltmp161:
	.p2align	2
@ %bb.4:
	.loc	13 0 5                          @ ../ctzdi2.c:0:5
.LCPI16_0:
	.long	1431655765                      @ 0x55555555
.LCPI16_1:
	.long	858993459                       @ 0x33333333
.LCPI16_2:
	.long	252645135                       @ 0xf0f0f0f
.LCPI16_3:
	.long	16843009                        @ 0x1010101
.Lfunc_end16:
	.size	__ctzdi2, .Lfunc_end16-__ctzdi2
	.cfi_endproc
	.cantunwind
	.fnend
                                        @ -- End function
	.globl	__ctzsi2                        @ -- Begin function __ctzsi2
	.p2align	2
	.type	__ctzsi2,%function
	.code	32                              @ @__ctzsi2
__ctzsi2:
.Lfunc_begin17:
	.file	14 "/workspaces/llvmta/testcases/libraries/builtinsint/buildarmv4" "../ctzsi2.c" md5 0x0372a2c6647eddaa73c0b61d8d03c3b1
	.loc	14 23 0 is_stmt 1               @ ../ctzsi2.c:23:0
	.fnstart
	.cfi_startproc
@ %bb.0:                                @ %entry
	push	{r4, r10, r11, lr}
	.cfi_def_cfa_offset 16
	.cfi_offset lr, -4
	.cfi_offset r11, -8
	.cfi_offset r10, -12
	.cfi_offset r4, -16
	add	r11, sp, #8
	.cfi_def_cfa r11, 8
	mov	r1, #255
	orr	r1, r1, #65280
.Ltmp162:
	.loc	14 25 20 prologue_end           @ ../ctzsi2.c:25:20
	and	r1, r0, r1
	rsbs	r2, r1, #0
	adc	r1, r1, r2
	mov	r2, #255
	.loc	14 25 40 is_stmt 0              @ ../ctzsi2.c:25:40
	lsl	lr, r1, #4
	.loc	14 29 13 is_stmt 1              @ ../ctzsi2.c:29:13
	and	r2, r2, r0, lsr lr
	.loc	14 26 7                         @ ../ctzsi2.c:26:7
	lsr	r0, r0, lr
	.loc	14 29 13                        @ ../ctzsi2.c:29:13
	rsbs	r3, r2, #0
	adc	r12, r2, r3
	mov	r2, #15
	.loc	14 29 29 is_stmt 0              @ ../ctzsi2.c:29:29
	lsl	r3, r12, #3
	.loc	14 33 13 is_stmt 1              @ ../ctzsi2.c:33:13
	and	r2, r2, r0, lsr r3
	.loc	14 30 7                         @ ../ctzsi2.c:30:7
	lsr	r0, r0, r3
	mov	r3, #3
	.loc	14 33 13                        @ ../ctzsi2.c:33:13
	rsbs	r1, r2, #0
	adc	r1, r2, r1
	.loc	14 33 27 is_stmt 0              @ ../ctzsi2.c:33:27
	lsl	r2, r1, #2
	.loc	14 37 13 is_stmt 1              @ ../ctzsi2.c:37:13
	and	r3, r3, r0, lsr r2
	.loc	14 34 7                         @ ../ctzsi2.c:34:7
	lsr	r0, r0, r2
	mvn	r2, #1
	.loc	14 37 13                        @ ../ctzsi2.c:37:13
	rsbs	r4, r3, #0
	adc	r3, r3, r4
	.loc	14 37 26 is_stmt 0              @ ../ctzsi2.c:37:26
	lsl	r4, r3, #1
	.loc	14 56 44 is_stmt 1              @ ../ctzsi2.c:56:44
	orr	r2, r2, r0, lsr r4
	.loc	14 38 7                         @ ../ctzsi2.c:38:7
	lsr	r0, r0, r4
	mov	r4, #1
	.loc	14 56 25                        @ ../ctzsi2.c:56:25
	and	r0, r4, r0, lsr #1
	.loc	14 56 44 is_stmt 0              @ ../ctzsi2.c:56:44
	add	r2, r2, #1
	.loc	14 56 20                        @ ../ctzsi2.c:56:20
	rsb	r0, r0, #2
	.loc	14 56 32                        @ ../ctzsi2.c:56:32
	and	r0, r0, r2
	.loc	14 31 7 is_stmt 1               @ ../ctzsi2.c:31:7
	orr	r2, lr, r12, lsl #3
	.loc	14 35 7                         @ ../ctzsi2.c:35:7
	orr	r1, r2, r1, lsl #2
	.loc	14 40 7                         @ ../ctzsi2.c:40:7
	orr	r1, r1, r3, lsl #1
	.loc	14 56 14                        @ ../ctzsi2.c:56:14
	add	r0, r1, r0
	.loc	14 56 5 is_stmt 0               @ ../ctzsi2.c:56:5
	pop	{r4, r10, r11, lr}
	bx	lr
.Ltmp163:
.Lfunc_end17:
	.size	__ctzsi2, .Lfunc_end17-__ctzsi2
	.cfi_endproc
	.cantunwind
	.fnend
                                        @ -- End function
	.globl	__divdi3                        @ -- Begin function __divdi3
	.p2align	2
	.type	__divdi3,%function
	.code	32                              @ @__divdi3
__divdi3:
.Lfunc_begin18:
	.file	15 "/workspaces/llvmta/testcases/libraries/builtinsint/buildarmv4" "../divdi3.c" md5 0x281227589e0794a81d7211e4ee4a402c
	.loc	15 21 0 is_stmt 1               @ ../divdi3.c:21:0
	.fnstart
	.cfi_startproc
@ %bb.0:                                @ %entry
	push	{r4, r5, r11, lr}
	.cfi_def_cfa_offset 16
	.cfi_offset lr, -4
	.cfi_offset r11, -8
	.cfi_offset r5, -12
	.cfi_offset r4, -16
	add	r11, sp, #8
	.cfi_def_cfa r11, 8
	sub	sp, sp, #8
	mov	r5, r1
	mov	r1, #0
	mov	r4, r3
.Ltmp164:
	.loc	15 26 12 prologue_end           @ ../divdi3.c:26:12
	eor	r2, r2, r3, asr #31
	eor	r3, r3, r3, asr #31
	.loc	15 25 12                        @ ../divdi3.c:25:12
	eor	r0, r0, r5, asr #31
	.loc	15 28 13                        @ ../divdi3.c:28:13
	str	r1, [sp]
	.loc	15 25 12                        @ ../divdi3.c:25:12
	eor	r1, r5, r5, asr #31
	.loc	15 25 19 is_stmt 0              @ ../divdi3.c:25:19
	subs	r0, r0, r5, asr #31
	sbc	r1, r1, r5, asr #31
	.loc	15 26 19 is_stmt 1              @ ../divdi3.c:26:19
	subs	r2, r2, r4, asr #31
	sbc	r3, r3, r4, asr #31
	.loc	15 28 13                        @ ../divdi3.c:28:13
	bl	__udivmoddi4
	.loc	15 23 20                        @ ../divdi3.c:23:20
	asr	r2, r5, #31
	.loc	15 27 9                         @ ../divdi3.c:27:9
	eor	r2, r2, r4, asr #31
	.loc	15 28 44                        @ ../divdi3.c:28:44
	eor	r0, r0, r2
	eor	r1, r1, r2
	.loc	15 28 51 is_stmt 0              @ ../divdi3.c:28:51
	subs	r0, r0, r2
	sbc	r1, r1, r2
	.loc	15 28 5                         @ ../divdi3.c:28:5
	sub	sp, r11, #8
	pop	{r4, r5, r11, lr}
	bx	lr
.Ltmp165:
.Lfunc_end18:
	.size	__divdi3, .Lfunc_end18-__divdi3
	.cfi_endproc
	.cantunwind
	.fnend
                                        @ -- End function
	.globl	__udivmoddi4                    @ -- Begin function __udivmoddi4
	.p2align	2
	.type	__udivmoddi4,%function
	.code	32                              @ @__udivmoddi4
__udivmoddi4:
.Lfunc_begin19:
	.file	16 "/workspaces/llvmta/testcases/libraries/builtinsint/buildarmv4" "../udivmoddi4.c" md5 0xeca4b147be989cda91330ba5b56ed879
	.loc	16 25 0 is_stmt 1               @ ../udivmoddi4.c:25:0
	.fnstart
	.cfi_startproc
@ %bb.0:                                @ %entry
	push	{r4, r5, r6, r7, r8, r10, r11, lr}
	.cfi_def_cfa_offset 32
	.cfi_offset lr, -4
	.cfi_offset r11, -8
	.cfi_offset r10, -12
	.cfi_offset r8, -16
	.cfi_offset r7, -20
	.cfi_offset r6, -24
	.cfi_offset r5, -28
	.cfi_offset r4, -32
	add	r11, sp, #24
	.cfi_def_cfa r11, 8
	sub	sp, sp, #32
	ldr	r8, [r11, #8]
.Ltmp166:
	.loc	16 36 9 prologue_end            @ ../udivmoddi4.c:36:9
	cmp	r1, #0
	.loc	16 29 11                        @ ../udivmoddi4.c:29:11
	str	r1, [sp, #28]
	str	r0, [sp, #24]
	.loc	16 31 11                        @ ../udivmoddi4.c:31:11
	str	r3, [sp, #20]
	str	r2, [sp, #16]
	.loc	16 36 9                         @ ../udivmoddi4.c:36:9
	beq	.LBB19_9
@ %bb.1:                                @ %if.end23
	.loc	16 57 13                        @ ../udivmoddi4.c:57:13
	ldr	r0, [sp, #16]
	.loc	16 57 9 is_stmt 0               @ ../udivmoddi4.c:57:9
	cmp	r0, #0
	beq	.LBB19_13
@ %bb.2:                                @ %if.else
	.loc	16 121 17 is_stmt 1             @ ../udivmoddi4.c:121:17
	ldr	r0, [sp, #20]
	.loc	16 121 13 is_stmt 0             @ ../udivmoddi4.c:121:13
	cmp	r0, #0
	beq	.LBB19_22
@ %bb.3:                                @ %if.else263
	.loc	16 176 36 is_stmt 1             @ ../udivmoddi4.c:176:36
	ldr	r0, [sp, #20]
	mov	r4, #32
	mov	r5, #32
	.loc	16 176 18 is_stmt 0             @ ../udivmoddi4.c:176:18
	cmp	r0, #0
	beq	.LBB19_5
@ %bb.4:                                @ %cond.false29
	bl	__clzsi2
	mov	r5, r0
.LBB19_5:                               @ %cond.end30
	.loc	16 176 62                       @ ../udivmoddi4.c:176:62
	ldr	r0, [sp, #28]
	.loc	16 176 44                       @ ../udivmoddi4.c:176:44
	cmp	r0, #0
	beq	.LBB19_7
@ %bb.6:                                @ %cond.false33
	bl	__clzsi2
	mov	r4, r0
.LBB19_7:                               @ %cond.end34
	.loc	16 176 42                       @ ../udivmoddi4.c:176:42
	sub	r1, r5, r4
	.loc	16 178 17 is_stmt 1             @ ../udivmoddi4.c:178:17
	cmp	r1, #32
	blo	.LBB19_30
.LBB19_8:                               @ %if.then111
	.loc	16 0 0 is_stmt 0                @ ../udivmoddi4.c:0:0
	cmp	r8, #0
	ldrne	r0, [sp, #24]
	ldrne	r1, [sp, #28]
	stmne	r8, {r0, r1}
	b	.LBB19_12
.LBB19_9:                               @ %if.then
	.loc	16 38 17 is_stmt 1              @ ../udivmoddi4.c:38:17
	ldr	r0, [sp, #20]
	.loc	16 38 13 is_stmt 0              @ ../udivmoddi4.c:38:13
	cmp	r0, #0
	beq	.LBB19_27
@ %bb.10:                               @ %if.end16
	.loc	16 52 13 is_stmt 1              @ ../udivmoddi4.c:52:13
	cmp	r8, #0
	beq	.LBB19_12
@ %bb.11:                               @ %if.then18
	.loc	16 53 24                        @ ../udivmoddi4.c:53:24
	ldr	r1, [sp, #24]
	mov	r0, #0
	.loc	16 53 18 is_stmt 0              @ ../udivmoddi4.c:53:18
	str	r0, [r8, #4]
	str	r1, [r8]
	mov	r1, #0
	b	.LBB19_49
.LBB19_12:
	.loc	16 0 18                         @ ../udivmoddi4.c:0:18
	mov	r0, #0
	mov	r1, #0
	b	.LBB19_49
.LBB19_13:                              @ %if.then28
	.loc	16 59 17 is_stmt 1              @ ../udivmoddi4.c:59:17
	ldr	r0, [sp, #20]
	.loc	16 59 13 is_stmt 0              @ ../udivmoddi4.c:59:13
	cmp	r0, #0
	beq	.LBB19_32
@ %bb.14:                               @ %if.end49
	.loc	16 70 17 is_stmt 1              @ ../udivmoddi4.c:70:17
	ldr	r0, [sp, #24]
	.loc	16 70 13 is_stmt 0              @ ../udivmoddi4.c:70:13
	cmp	r0, #0
	beq	.LBB19_50
@ %bb.15:                               @ %if.end74
	.loc	16 88 18 is_stmt 1              @ ../udivmoddi4.c:88:18
	ldr	r0, [sp, #20]
	.loc	16 88 35 is_stmt 0              @ ../udivmoddi4.c:88:35
	sub	r1, r0, #1
	.loc	16 88 13                        @ ../udivmoddi4.c:88:13
	tst	r0, r1
	beq	.LBB19_57
@ %bb.16:                               @ %if.end103
	.loc	16 102 32 is_stmt 1             @ ../udivmoddi4.c:102:32
	ldr	r0, [sp, #20]
	mov	r4, #32
	mov	r5, #32
	.loc	16 102 14 is_stmt 0             @ ../udivmoddi4.c:102:14
	cmp	r0, #0
	beq	.LBB19_18
@ %bb.17:                               @ %cond.false6
	bl	__clzsi2
	mov	r5, r0
.LBB19_18:                              @ %cond.end7
	.loc	16 102 58                       @ ../udivmoddi4.c:102:58
	ldr	r0, [sp, #28]
	.loc	16 102 40                       @ ../udivmoddi4.c:102:40
	cmp	r0, #0
	beq	.LBB19_20
@ %bb.19:                               @ %cond.false10
	bl	__clzsi2
	mov	r4, r0
.LBB19_20:                              @ %cond.end11
	.loc	16 102 38                       @ ../udivmoddi4.c:102:38
	sub	r0, r5, r4
	.loc	16 104 13 is_stmt 1             @ ../udivmoddi4.c:104:13
	cmp	r0, #31
	bhs	.LBB19_8
@ %bb.21:                               @ %if.end116
	.loc	16 114 24                       @ ../udivmoddi4.c:114:24
	ldr	r2, [sp, #24]
	.loc	16 116 24                       @ ../udivmoddi4.c:116:24
	ldr	r3, [sp, #28]
	mov	r1, #0
	.loc	16 110 9                        @ ../udivmoddi4.c:110:9
	add	r12, r0, #1
	.loc	16 113 17                       @ ../udivmoddi4.c:113:17
	str	r1, [sp, #8]
	.loc	16 114 45                       @ ../udivmoddi4.c:114:45
	rsb	r1, r0, #31
	.loc	16 114 28 is_stmt 0             @ ../udivmoddi4.c:114:28
	lsl	r5, r2, r1
	.loc	16 114 18                       @ ../udivmoddi4.c:114:18
	str	r5, [sp, #12]
	.loc	16 116 29 is_stmt 1             @ ../udivmoddi4.c:116:29
	lsr	r5, r3, r12
	.loc	16 116 18 is_stmt 0             @ ../udivmoddi4.c:116:18
	str	r5, [sp, #4]
	b	.LBB19_44
.LBB19_22:                              @ %if.then142
	.loc	16 127 22 is_stmt 1             @ ../udivmoddi4.c:127:22
	ldr	r0, [sp, #16]
	.loc	16 127 17 is_stmt 0             @ ../udivmoddi4.c:127:17
	sub	r1, r0, #1
	tst	r0, r1
	bne	.LBB19_37
@ %bb.23:                               @ %if.then151
	.loc	16 129 21 is_stmt 1             @ ../udivmoddi4.c:129:21
	cmp	r8, #0
	beq	.LBB19_25
@ %bb.24:                               @ %if.then153
	.loc	16 130 43                       @ ../udivmoddi4.c:130:43
	ldr	r1, [sp, #16]
	.loc	16 130 32 is_stmt 0             @ ../udivmoddi4.c:130:32
	ldr	r2, [sp, #24]
	mov	r0, #0
	.loc	16 130 26                       @ ../udivmoddi4.c:130:26
	str	r0, [r8, #4]
	.loc	16 130 47                       @ ../udivmoddi4.c:130:47
	sub	r1, r1, #1
	.loc	16 130 36                       @ ../udivmoddi4.c:130:36
	and	r1, r2, r1
	.loc	16 130 26                       @ ../udivmoddi4.c:130:26
	str	r1, [r8]
.LBB19_25:                              @ %if.end161
	.loc	16 131 25 is_stmt 1             @ ../udivmoddi4.c:131:25
	ldr	r0, [sp, #16]
	.loc	16 131 21 is_stmt 0             @ ../udivmoddi4.c:131:21
	cmp	r0, #1
	bne	.LBB19_53
@ %bb.26:                               @ %if.then166
	.loc	16 132 30 is_stmt 1             @ ../udivmoddi4.c:132:30
	ldr	r0, [sp, #24]
	ldr	r1, [sp, #28]
	b	.LBB19_49
.LBB19_27:                              @ %if.then5
	.loc	16 44 17                        @ ../udivmoddi4.c:44:17
	cmp	r8, #0
	beq	.LBB19_29
@ %bb.28:                               @ %if.then6
	.loc	16 0 17 is_stmt 0               @ ../udivmoddi4.c:0:17
	mov	r0, #0
	.loc	16 45 38 is_stmt 1              @ ../udivmoddi4.c:45:38
	ldr	r1, [sp, #16]
	.loc	16 45 22 is_stmt 0              @ ../udivmoddi4.c:45:22
	str	r0, [r8, #4]
	.loc	16 45 28                        @ ../udivmoddi4.c:45:28
	ldr	r0, [sp, #24]
	.loc	16 45 32                        @ ../udivmoddi4.c:45:32
	bl	__umodsi3
	.loc	16 45 22                        @ ../udivmoddi4.c:45:22
	str	r0, [r8]
.LBB19_29:                              @ %if.end
	.loc	16 46 24 is_stmt 1              @ ../udivmoddi4.c:46:24
	ldr	r0, [sp, #24]
	b	.LBB19_35
.LBB19_30:                              @ %if.end276
	.loc	16 184 13                       @ ../udivmoddi4.c:184:13
	add	r12, r1, #1
	mov	r2, #0
	.loc	16 188 17                       @ ../udivmoddi4.c:188:17
	cmp	r12, #32
	.loc	16 187 21                       @ ../udivmoddi4.c:187:21
	str	r2, [sp, #8]
	.loc	16 188 17                       @ ../udivmoddi4.c:188:17
	bne	.LBB19_43
@ %bb.31:                               @ %if.then282
	.loc	16 190 32                       @ ../udivmoddi4.c:190:32
	ldr	r1, [sp, #24]
	.loc	16 192 31                       @ ../udivmoddi4.c:192:31
	ldr	r3, [sp, #28]
	.loc	16 191 26                       @ ../udivmoddi4.c:191:26
	str	r2, [sp, #4]
	.loc	16 190 26                       @ ../udivmoddi4.c:190:26
	str	r1, [sp, #12]
	.loc	16 192 25                       @ ../udivmoddi4.c:192:25
	str	r3, [sp]
	b	.LBB19_46
.LBB19_32:                              @ %if.then33
	.loc	16 65 17                        @ ../udivmoddi4.c:65:17
	cmp	r8, #0
	beq	.LBB19_34
@ %bb.33:                               @ %if.then35
	.loc	16 0 17 is_stmt 0               @ ../udivmoddi4.c:0:17
	mov	r0, #0
	.loc	16 66 39 is_stmt 1              @ ../udivmoddi4.c:66:39
	ldr	r1, [sp, #16]
	.loc	16 66 22 is_stmt 0              @ ../udivmoddi4.c:66:22
	str	r0, [r8, #4]
	.loc	16 66 28                        @ ../udivmoddi4.c:66:28
	ldr	r0, [sp, #28]
	.loc	16 66 33                        @ ../udivmoddi4.c:66:33
	bl	__umodsi3
	.loc	16 66 22                        @ ../udivmoddi4.c:66:22
	str	r0, [r8]
.LBB19_34:                              @ %if.end42
	.loc	16 67 24 is_stmt 1              @ ../udivmoddi4.c:67:24
	ldr	r0, [sp, #28]
.LBB19_35:                              @ %return
	.loc	16 0 0 is_stmt 0                @ ../udivmoddi4.c:0:0
	ldr	r1, [sp, #16]
.LBB19_36:                              @ %return
	bl	__udivsi3
	mov	r1, #0
	b	.LBB19_49
.LBB19_37:                              @ %if.end187
	.loc	16 142 55 is_stmt 1             @ ../udivmoddi4.c:142:55
	ldr	r1, [sp, #16]
	mov	r4, #32
	mov	r0, #32
	.loc	16 142 37 is_stmt 0             @ ../udivmoddi4.c:142:37
	cmp	r1, #0
	beq	.LBB19_39
@ %bb.38:                               @ %cond.false21
	mov	r0, r1
	bl	__clzsi2
.LBB19_39:                              @ %cond.end22
	.loc	16 142 35                       @ ../udivmoddi4.c:142:35
	add	r5, r0, #33
	.loc	16 142 80                       @ ../udivmoddi4.c:142:80
	ldr	r0, [sp, #28]
	.loc	16 142 62                       @ ../udivmoddi4.c:142:62
	cmp	r0, #0
	beq	.LBB19_41
@ %bb.40:                               @ %cond.false25
	bl	__clzsi2
	mov	r4, r0
.LBB19_41:                              @ %cond.end26
	.loc	16 142 60                       @ ../udivmoddi4.c:142:60
	sub	r12, r5, r4
	mov	r1, #0
	.loc	16 147 17 is_stmt 1             @ ../udivmoddi4.c:147:17
	cmp	r12, #32
	bne	.LBB19_55
@ %bb.42:                               @ %if.then195
	.loc	16 150 32                       @ ../udivmoddi4.c:150:32
	ldr	r2, [sp, #24]
	.loc	16 152 31                       @ ../udivmoddi4.c:152:31
	ldr	r3, [sp, #28]
	.loc	16 149 25                       @ ../udivmoddi4.c:149:25
	str	r1, [sp, #8]
	.loc	16 151 26                       @ ../udivmoddi4.c:151:26
	str	r1, [sp, #4]
	.loc	16 150 26                       @ ../udivmoddi4.c:150:26
	str	r2, [sp, #12]
	.loc	16 152 25                       @ ../udivmoddi4.c:152:25
	str	r3, [sp]
	b	.LBB19_46
.LBB19_43:                              @ %if.else293
	.loc	16 197 32                       @ ../udivmoddi4.c:197:32
	ldr	r3, [sp, #28]
	.loc	16 196 32                       @ ../udivmoddi4.c:196:32
	ldr	r2, [sp, #24]
	.loc	16 196 53 is_stmt 0             @ ../udivmoddi4.c:196:53
	rsb	r1, r1, #31
	.loc	16 197 37 is_stmt 1             @ ../udivmoddi4.c:197:37
	lsr	r5, r3, r12
	.loc	16 197 26 is_stmt 0             @ ../udivmoddi4.c:197:26
	str	r5, [sp, #4]
	.loc	16 196 36 is_stmt 1             @ ../udivmoddi4.c:196:36
	lsl	r5, r2, r1
	.loc	16 196 26 is_stmt 0             @ ../udivmoddi4.c:196:26
	str	r5, [sp, #12]
.LBB19_44:                              @ %if.end317
	.loc	16 0 0                          @ ../udivmoddi4.c:0:0
	lsl	r1, r3, r1
	orr	r1, r1, r2, lsr r12
.LBB19_45:                              @ %if.end317
	str	r1, [sp]
.LBB19_46:                              @ %if.end317
	mov	r1, #0
	.loc	16 209 5 is_stmt 1              @ ../udivmoddi4.c:209:5
	cmp	r12, #0
	beq	.LBB19_48
.LBB19_47:                              @ %for.body
                                        @ =>This Inner Loop Header: Depth=1
	.loc	16 214 43                       @ ../udivmoddi4.c:214:43
	ldr	r2, [sp, #8]
	.loc	16 213 43                       @ ../udivmoddi4.c:213:43
	ldr	r3, [sp, #12]
	.loc	16 223 37                       @ ../udivmoddi4.c:223:37
	ldr	r5, [sp, #20]
	.loc	16 209 20                       @ ../udivmoddi4.c:209:20
	sub	r12, r12, #1
	.loc	16 215 36                       @ ../udivmoddi4.c:215:36
	orr	r1, r1, r2, lsl #1
	.loc	16 215 18 is_stmt 0             @ ../udivmoddi4.c:215:18
	str	r1, [sp, #8]
	.loc	16 214 36 is_stmt 1             @ ../udivmoddi4.c:214:36
	lsl	r1, r3, #1
	orr	r1, r1, r2, lsr #31
	.loc	16 214 18 is_stmt 0             @ ../udivmoddi4.c:214:18
	str	r1, [sp, #12]
	.loc	16 212 43 is_stmt 1             @ ../udivmoddi4.c:212:43
	ldm	sp, {r1, r2}
	.loc	16 212 36 is_stmt 0             @ ../udivmoddi4.c:212:36
	lsl	r2, r2, #1
	orr	r2, r2, r1, lsr #31
	.loc	16 213 36 is_stmt 1             @ ../udivmoddi4.c:213:36
	lsl	r1, r1, #1
	orr	r1, r1, r3, lsr #31
	.loc	16 223 37                       @ ../udivmoddi4.c:223:37
	ldr	r3, [sp, #16]
	.loc	16 223 49 is_stmt 0             @ ../udivmoddi4.c:223:49
	mvn	r7, r2
	mvn	r0, r1
	.loc	16 225 15 is_stmt 1             @ ../udivmoddi4.c:225:15
	subs	r4, r1, r3
	sbc	r6, r2, r5
	.loc	16 223 49                       @ ../udivmoddi4.c:223:49
	adds	r0, r3, r0
	adcs	r0, r5, r7
	.loc	16 225 15                       @ ../udivmoddi4.c:225:15
	movpl	r4, r1
	movpl	r6, r2
	.loc	16 224 19                       @ ../udivmoddi4.c:224:19
	lsr	r1, r0, #31
	.loc	16 225 15                       @ ../udivmoddi4.c:225:15
	str	r4, [sp]
	str	r6, [sp, #4]
	.loc	16 209 5                        @ ../udivmoddi4.c:209:5
	cmp	r12, #0
	bne	.LBB19_47
.LBB19_48:                              @ %for.end
	.loc	16 227 16                       @ ../udivmoddi4.c:227:16
	ldr	r0, [sp, #8]
	ldr	r2, [sp, #12]
	.loc	16 228 9                        @ ../udivmoddi4.c:228:9
	cmp	r8, #0
	.loc	16 227 26                       @ ../udivmoddi4.c:227:26
	orr	r1, r1, r0, lsl #1
	.loc	16 227 11 is_stmt 0             @ ../udivmoddi4.c:227:11
	str	r1, [sp, #8]
	.loc	16 227 20                       @ ../udivmoddi4.c:227:20
	lsl	r1, r2, #1
	orr	r0, r1, r0, lsr #31
	.loc	16 227 11                       @ ../udivmoddi4.c:227:11
	str	r0, [sp, #12]
	.loc	16 229 18 is_stmt 1             @ ../udivmoddi4.c:229:18
	ldmne	sp, {r0, r1}
	.loc	16 229 14 is_stmt 0             @ ../udivmoddi4.c:229:14
	stmne	r8, {r0, r1}
	.loc	16 230 14 is_stmt 1             @ ../udivmoddi4.c:230:14
	ldr	r0, [sp, #8]
	ldr	r1, [sp, #12]
.LBB19_49:                              @ %return
	.loc	16 231 1                        @ ../udivmoddi4.c:231:1
	sub	sp, r11, #24
	pop	{r4, r5, r6, r7, r8, r10, r11, lr}
	bx	lr
.LBB19_50:                              @ %if.then54
	.loc	16 76 17                        @ ../udivmoddi4.c:76:17
	cmp	r8, #0
	beq	.LBB19_52
@ %bb.51:                               @ %if.then56
	.loc	16 78 32                        @ ../udivmoddi4.c:78:32
	ldr	r0, [sp, #28]
	.loc	16 78 43 is_stmt 0              @ ../udivmoddi4.c:78:43
	ldr	r1, [sp, #20]
	mov	r4, #0
	.loc	16 80 22 is_stmt 1              @ ../udivmoddi4.c:80:22
	str	r4, [r8]
	.loc	16 78 37                        @ ../udivmoddi4.c:78:37
	bl	__umodsi3
	.loc	16 80 22                        @ ../udivmoddi4.c:80:22
	str	r0, [r8, #4]
	.loc	16 79 25                        @ ../udivmoddi4.c:79:25
	str	r4, [sp]
	.loc	16 78 26                        @ ../udivmoddi4.c:78:26
	str	r0, [sp, #4]
.LBB19_52:                              @ %if.end67
	.loc	16 82 24                        @ ../udivmoddi4.c:82:24
	ldr	r0, [sp, #28]
	.loc	16 82 35 is_stmt 0              @ ../udivmoddi4.c:82:35
	ldr	r1, [sp, #20]
	b	.LBB19_36
.LBB19_53:                              @ %if.end168
	.loc	16 133 40 is_stmt 1             @ ../udivmoddi4.c:133:40
	ldr	r0, [sp, #16]
	.loc	16 133 22 is_stmt 0             @ ../udivmoddi4.c:133:22
	cmp	r0, #0
	beq	.LBB19_62
@ %bb.54:                               @ %cond.false16
	sub	r1, r0, #1
	bic	r0, r1, r0
	ldr	r1, .LCPI19_0
	and	r1, r1, r0, lsr #1
	sub	r0, r0, r1
	ldr	r1, .LCPI19_1
	and	r2, r1, r0, lsr #2
	and	r0, r0, r1
	ldr	r1, .LCPI19_2
	add	r0, r0, r2
	add	r0, r0, r0, lsr #4
	and	r0, r0, r1
	ldr	r1, .LCPI19_3
	mul	r2, r0, r1
	lsr	r0, r2, #24
	b	.LBB19_63
.LBB19_55:                              @ %if.else208
	.loc	16 154 22 is_stmt 1             @ ../udivmoddi4.c:154:22
	cmp	r12, #31
	bhi	.LBB19_61
@ %bb.56:                               @ %if.then211
	.loc	16 158 32                       @ ../udivmoddi4.c:158:32
	ldr	r2, [sp, #28]
	.loc	16 156 25                       @ ../udivmoddi4.c:156:25
	str	r1, [sp, #8]
	.loc	16 157 32                       @ ../udivmoddi4.c:157:32
	ldr	r1, [sp, #24]
	.loc	16 158 37                       @ ../udivmoddi4.c:158:37
	lsr	r3, r2, r12
	.loc	16 158 26 is_stmt 0             @ ../udivmoddi4.c:158:26
	str	r3, [sp, #4]
	.loc	16 157 53 is_stmt 1             @ ../udivmoddi4.c:157:53
	rsb	r3, r12, #32
	.loc	16 157 36 is_stmt 0             @ ../udivmoddi4.c:157:36
	lsl	r5, r1, r3
	.loc	16 159 37 is_stmt 1             @ ../udivmoddi4.c:159:37
	lsl	r2, r2, r3
	.loc	16 157 26                       @ ../udivmoddi4.c:157:26
	str	r5, [sp, #12]
	.loc	16 159 61                       @ ../udivmoddi4.c:159:61
	orr	r1, r2, r1, lsr r12
	b	.LBB19_45
.LBB19_57:                              @ %if.then81
	.loc	16 90 17                        @ ../udivmoddi4.c:90:17
	cmp	r8, #0
	beq	.LBB19_59
@ %bb.58:                               @ %if.then83
	.loc	16 93 44                        @ ../udivmoddi4.c:93:44
	ldr	r2, [sp, #20]
	.loc	16 92 31                        @ ../udivmoddi4.c:92:31
	ldr	r0, [sp, #24]
	.loc	16 93 32                        @ ../udivmoddi4.c:93:32
	ldr	r1, [sp, #28]
	.loc	16 93 49 is_stmt 0              @ ../udivmoddi4.c:93:49
	sub	r2, r2, #1
	.loc	16 93 37                        @ ../udivmoddi4.c:93:37
	and	r1, r1, r2
	.loc	16 94 22 is_stmt 1              @ ../udivmoddi4.c:94:22
	stm	r8, {r0, r1}
	.loc	16 92 25                        @ ../udivmoddi4.c:92:25
	stm	sp, {r0, r1}
.LBB19_59:                              @ %if.end97
	.loc	16 96 50                        @ ../udivmoddi4.c:96:50
	ldr	r1, [sp, #20]
	.loc	16 96 24 is_stmt 0              @ ../udivmoddi4.c:96:24
	ldr	r0, [sp, #28]
	.loc	16 96 32                        @ ../udivmoddi4.c:96:32
	cmp	r1, #0
	beq	.LBB19_64
@ %bb.60:                               @ %cond.false
	sub	r2, r1, #1
	bic	r1, r2, r1
	ldr	r2, .LCPI19_0
	and	r2, r2, r1, lsr #1
	sub	r1, r1, r2
	ldr	r2, .LCPI19_1
	and	r3, r2, r1, lsr #2
	and	r1, r1, r2
	ldr	r2, .LCPI19_2
	add	r1, r1, r3
	add	r1, r1, r1, lsr #4
	and	r1, r1, r2
	ldr	r2, .LCPI19_3
	mul	r3, r1, r2
	lsr	r1, r3, #24
	b	.LBB19_65
.LBB19_61:                              @ %if.else235
	.loc	16 163 31 is_stmt 1             @ ../udivmoddi4.c:163:31
	ldr	r2, [sp, #24]
	.loc	16 164 33                       @ ../udivmoddi4.c:164:33
	ldr	r3, [sp, #28]
	.loc	16 166 26                       @ ../udivmoddi4.c:166:26
	str	r1, [sp, #4]
	.loc	16 163 53                       @ ../udivmoddi4.c:163:53
	rsb	r1, r12, #64
	.loc	16 163 35 is_stmt 0             @ ../udivmoddi4.c:163:35
	lsl	r5, r2, r1
	.loc	16 164 38 is_stmt 1             @ ../udivmoddi4.c:164:38
	lsl	r1, r3, r1
	.loc	16 163 25                       @ ../udivmoddi4.c:163:25
	str	r5, [sp, #8]
	.loc	16 165 44                       @ ../udivmoddi4.c:165:44
	sub	r5, r12, #32
	.loc	16 167 36                       @ ../udivmoddi4.c:167:36
	lsr	r4, r3, r5
	.loc	16 164 63                       @ ../udivmoddi4.c:164:63
	orr	r1, r1, r2, lsr r5
	.loc	16 167 25                       @ ../udivmoddi4.c:167:25
	str	r4, [sp]
	.loc	16 164 26                       @ ../udivmoddi4.c:164:26
	str	r1, [sp, #12]
	b	.LBB19_46
.LBB19_62:
	.loc	16 0 26 is_stmt 0               @ ../udivmoddi4.c:0:26
	mov	r0, #32
.LBB19_63:                              @ %cond.end17
	.loc	16 134 32 is_stmt 1             @ ../udivmoddi4.c:134:32
	ldr	r3, [sp, #28]
	.loc	16 135 68                       @ ../udivmoddi4.c:135:68
	ldr	r2, [sp, #24]
	.loc	16 135 54 is_stmt 0             @ ../udivmoddi4.c:135:54
	rsb	r6, r0, #32
	.loc	16 134 37 is_stmt 1             @ ../udivmoddi4.c:134:37
	lsr	r1, r3, r0
	.loc	16 135 37                       @ ../udivmoddi4.c:135:37
	lsl	r3, r3, r6
	.loc	16 135 61 is_stmt 0             @ ../udivmoddi4.c:135:61
	orr	r0, r3, r2, lsr r0
	.loc	16 134 26 is_stmt 1             @ ../udivmoddi4.c:134:26
	str	r1, [sp, #12]
	.loc	16 135 25                       @ ../udivmoddi4.c:135:25
	str	r0, [sp, #8]
	b	.LBB19_49
.LBB19_64:
	.loc	16 0 25 is_stmt 0               @ ../udivmoddi4.c:0:25
	mov	r1, #32
.LBB19_65:                              @ %cond.end
	.loc	16 96 29 is_stmt 1              @ ../udivmoddi4.c:96:29
	lsr	r0, r0, r1
	mov	r1, #0
	b	.LBB19_49
.Ltmp167:
	.p2align	2
@ %bb.66:
	.loc	16 0 29 is_stmt 0               @ ../udivmoddi4.c:0:29
.LCPI19_0:
	.long	1431655765                      @ 0x55555555
.LCPI19_1:
	.long	858993459                       @ 0x33333333
.LCPI19_2:
	.long	252645135                       @ 0xf0f0f0f
.LCPI19_3:
	.long	16843009                        @ 0x1010101
.Lfunc_end19:
	.size	__udivmoddi4, .Lfunc_end19-__udivmoddi4
	.cfi_endproc
	.cantunwind
	.fnend
                                        @ -- End function
	.globl	__divmoddi4                     @ -- Begin function __divmoddi4
	.p2align	2
	.type	__divmoddi4,%function
	.code	32                              @ @__divmoddi4
__divmoddi4:
.Lfunc_begin20:
	.file	17 "/workspaces/llvmta/testcases/libraries/builtinsint/buildarmv4" "../divmoddi4.c" md5 0xbd72633dccf26f3dd8ee74bf04f7fdac
	.loc	17 21 0 is_stmt 1               @ ../divmoddi4.c:21:0
	.fnstart
	.cfi_startproc
@ %bb.0:                                @ %entry
	push	{r4, r5, r6, r7, r11, lr}
	.cfi_def_cfa_offset 24
	.cfi_offset lr, -4
	.cfi_offset r11, -8
	.cfi_offset r7, -12
	.cfi_offset r6, -16
	.cfi_offset r5, -20
	.cfi_offset r4, -24
	add	r11, sp, #16
	.cfi_def_cfa r11, 8
	mov	r4, r3
	mov	r5, r2
	mov	r6, r1
	mov	r7, r0
.Ltmp168:
	.loc	17 22 14 prologue_end           @ ../divmoddi4.c:22:14
	bl	__divdi3
	ldr	r12, [r11, #8]
	.loc	17 23 16                        @ ../divmoddi4.c:23:16
	umull	r2, r3, r0, r5
	.loc	17 23 12 is_stmt 0              @ ../divmoddi4.c:23:12
	subs	r2, r7, r2
	.loc	17 23 16                        @ ../divmoddi4.c:23:16
	mla	r7, r0, r4, r3
	mla	r3, r1, r5, r7
	.loc	17 23 12                        @ ../divmoddi4.c:23:12
	sbc	r3, r6, r3
	.loc	17 23 8                         @ ../divmoddi4.c:23:8
	stm	r12, {r2, r3}
	.loc	17 24 3 is_stmt 1               @ ../divmoddi4.c:24:3
	pop	{r4, r5, r6, r7, r11, lr}
	bx	lr
.Ltmp169:
.Lfunc_end20:
	.size	__divmoddi4, .Lfunc_end20-__divmoddi4
	.cfi_endproc
	.cantunwind
	.fnend
                                        @ -- End function
	.globl	__divmodsi4                     @ -- Begin function __divmodsi4
	.p2align	2
	.type	__divmodsi4,%function
	.code	32                              @ @__divmodsi4
__divmodsi4:
.Lfunc_begin21:
	.file	18 "/workspaces/llvmta/testcases/libraries/builtinsint/buildarmv4" "../divmodsi4.c" md5 0x0cf7caca427f8ea020b675e27b5985b5
	.loc	18 21 0                         @ ../divmodsi4.c:21:0
	.fnstart
	.cfi_startproc
@ %bb.0:                                @ %entry
	push	{r4, r5, r6, r10, r11, lr}
	.cfi_def_cfa_offset 24
	.cfi_offset lr, -4
	.cfi_offset r11, -8
	.cfi_offset r10, -12
	.cfi_offset r6, -16
	.cfi_offset r5, -20
	.cfi_offset r4, -24
	add	r11, sp, #16
	.cfi_def_cfa r11, 8
	mov	r4, r2
	mov	r5, r1
	mov	r6, r0
.Ltmp170:
	.loc	18 22 14 prologue_end           @ ../divmodsi4.c:22:14
	bl	__divsi3
	.loc	18 23 16                        @ ../divmodsi4.c:23:16
	mul	r1, r0, r5
	.loc	18 23 12 is_stmt 0              @ ../divmodsi4.c:23:12
	sub	r1, r6, r1
	.loc	18 23 8                         @ ../divmodsi4.c:23:8
	str	r1, [r4]
	.loc	18 24 3 is_stmt 1               @ ../divmodsi4.c:24:3
	pop	{r4, r5, r6, r10, r11, lr}
	bx	lr
.Ltmp171:
.Lfunc_end21:
	.size	__divmodsi4, .Lfunc_end21-__divmodsi4
	.cfi_endproc
	.cantunwind
	.fnend
                                        @ -- End function
	.globl	__divsi3                        @ -- Begin function __divsi3
	.p2align	2
	.type	__divsi3,%function
	.code	32                              @ @__divsi3
__divsi3:
.Lfunc_begin22:
	.file	19 "/workspaces/llvmta/testcases/libraries/builtinsint/buildarmv4" "../divsi3.c" md5 0x7845e3e46788425cf69d463f3cfe00e5
	.loc	19 23 0                         @ ../divsi3.c:23:0
	.fnstart
	.cfi_startproc
@ %bb.0:                                @ %entry
	push	{r4, r5, r11, lr}
	.cfi_def_cfa_offset 16
	.cfi_offset lr, -4
	.cfi_offset r11, -8
	.cfi_offset r5, -12
	.cfi_offset r4, -16
	add	r11, sp, #8
	.cfi_def_cfa r11, 8
	mov	r4, r1
.Ltmp172:
	.loc	19 28 12 prologue_end           @ ../divsi3.c:28:12
	eor	r1, r1, r1, asr #31
	mov	r5, r0
	.loc	19 27 12                        @ ../divsi3.c:27:12
	eor	r0, r0, r0, asr #31
	.loc	19 27 19 is_stmt 0              @ ../divsi3.c:27:19
	sub	r0, r0, r5, asr #31
	.loc	19 28 19 is_stmt 1              @ ../divsi3.c:28:19
	sub	r1, r1, r4, asr #31
	.loc	19 36 22                        @ ../divsi3.c:36:22
	bl	__udivsi3
	.loc	19 25 20                        @ ../divsi3.c:25:20
	asr	r1, r5, #31
	.loc	19 29 9                         @ ../divsi3.c:29:9
	eor	r1, r1, r4, asr #31
	.loc	19 36 33                        @ ../divsi3.c:36:33
	eor	r0, r0, r1
	.loc	19 36 40 is_stmt 0              @ ../divsi3.c:36:40
	sub	r0, r0, r1
	.loc	19 36 5                         @ ../divsi3.c:36:5
	pop	{r4, r5, r11, lr}
	bx	lr
.Ltmp173:
.Lfunc_end22:
	.size	__divsi3, .Lfunc_end22-__divsi3
	.cfi_endproc
	.cantunwind
	.fnend
                                        @ -- End function
	.globl	__ffsdi2                        @ -- Begin function __ffsdi2
	.p2align	2
	.type	__ffsdi2,%function
	.code	32                              @ @__ffsdi2
__ffsdi2:
.Lfunc_begin23:
	.file	20 "/workspaces/llvmta/testcases/libraries/builtinsint/buildarmv4" "../ffsdi2.c" md5 0x4b800e1cad35a0bc99971441032171a3
	.loc	20 23 0 is_stmt 1               @ ../ffsdi2.c:23:0
	.fnstart
	.cfi_startproc
@ %bb.0:                                @ %entry
	sub	sp, sp, #8
	.cfi_def_cfa_offset 8
.Ltmp174:
	.loc	20 26 9 prologue_end            @ ../ffsdi2.c:26:9
	cmp	r0, #0
	.loc	20 25 11                        @ ../ffsdi2.c:25:11
	stm	sp, {r0, r1}
	.loc	20 26 9                         @ ../ffsdi2.c:26:9
	beq	.LBB23_3
@ %bb.1:                                @ %if.end6
	.loc	20 32 30                        @ ../ffsdi2.c:32:30
	ldr	r0, [sp]
	.loc	20 32 12 is_stmt 0              @ ../ffsdi2.c:32:12
	cmp	r0, #0
	beq	.LBB23_6
@ %bb.2:                                @ %cond.false2
	sub	r1, r0, #1
	bic	r0, r1, r0
	ldr	r1, .LCPI23_0
	and	r1, r1, r0, lsr #1
	sub	r0, r0, r1
	ldr	r1, .LCPI23_1
	and	r2, r1, r0, lsr #2
	and	r0, r0, r1
	ldr	r1, .LCPI23_2
	add	r0, r0, r2
	add	r0, r0, r0, lsr #4
	and	r0, r0, r1
	ldr	r1, .LCPI23_3
	mul	r2, r0, r1
	lsr	r0, r2, #24
	b	.LBB23_7
.LBB23_3:                               @ %if.then
	.loc	20 28 17 is_stmt 1              @ ../ffsdi2.c:28:17
	ldr	r0, [sp, #4]
	.loc	20 28 13 is_stmt 0              @ ../ffsdi2.c:28:13
	cmp	r0, #0
	moveq	r0, #0
	.loc	20 33 1 is_stmt 1               @ ../ffsdi2.c:33:1
	addeq	sp, sp, #8
	bxeq	lr
.LBB23_4:                               @ %if.end
	.loc	20 30 34                        @ ../ffsdi2.c:30:34
	ldr	r0, [sp, #4]
	.loc	20 30 16 is_stmt 0              @ ../ffsdi2.c:30:16
	cmp	r0, #0
	beq	.LBB23_8
@ %bb.5:                                @ %cond.false
	sub	r1, r0, #1
	bic	r0, r1, r0
	ldr	r1, .LCPI23_0
	and	r1, r1, r0, lsr #1
	sub	r0, r0, r1
	ldr	r1, .LCPI23_1
	and	r2, r1, r0, lsr #2
	and	r0, r0, r1
	ldr	r1, .LCPI23_2
	add	r0, r0, r2
	add	r0, r0, r0, lsr #4
	and	r0, r0, r1
	ldr	r1, .LCPI23_3
	mul	r2, r0, r1
	lsr	r0, r2, #24
	b	.LBB23_9
.LBB23_6:
	.loc	20 0 16                         @ ../ffsdi2.c:0:16
	mov	r0, #32
.LBB23_7:                               @ %cond.end3
	.loc	20 32 35 is_stmt 1              @ ../ffsdi2.c:32:35
	add	r0, r0, #1
	.loc	20 33 1                         @ ../ffsdi2.c:33:1
	add	sp, sp, #8
	bx	lr
.LBB23_8:
	.loc	20 0 1 is_stmt 0                @ ../ffsdi2.c:0:1
	mov	r0, #32
.LBB23_9:
	.loc	20 30 40 is_stmt 1              @ ../ffsdi2.c:30:40
	add	r0, r0, #33
	.loc	20 33 1                         @ ../ffsdi2.c:33:1
	add	sp, sp, #8
	bx	lr
.Ltmp175:
	.p2align	2
@ %bb.10:
	.loc	20 0 1 is_stmt 0                @ ../ffsdi2.c:0:1
.LCPI23_0:
	.long	1431655765                      @ 0x55555555
.LCPI23_1:
	.long	858993459                       @ 0x33333333
.LCPI23_2:
	.long	252645135                       @ 0xf0f0f0f
.LCPI23_3:
	.long	16843009                        @ 0x1010101
.Lfunc_end23:
	.size	__ffsdi2, .Lfunc_end23-__ffsdi2
	.cfi_endproc
	.cantunwind
	.fnend
                                        @ -- End function
	.globl	__ffssi2                        @ -- Begin function __ffssi2
	.p2align	2
	.type	__ffssi2,%function
	.code	32                              @ @__ffssi2
__ffssi2:
.Lfunc_begin24:
	.file	21 "/workspaces/llvmta/testcases/libraries/builtinsint/buildarmv4" "../ffssi2.c" md5 0x182169d6765bddc2bf1b03cc7a4f47cb
	.loc	21 23 0 is_stmt 1               @ ../ffssi2.c:23:0
	.fnstart
	.cfi_startproc
@ %bb.0:                                @ %entry
	.loc	21 24 9 prologue_end            @ ../ffssi2.c:24:9
	cmp	r0, #0
	moveq	r0, #0
	.loc	21 29 1                         @ ../ffssi2.c:29:1
	bxeq	lr
.LBB24_1:                               @ %if.end
	.loc	21 28 12                        @ ../ffssi2.c:28:12
	sub	r1, r0, #1
	bic	r0, r1, r0
	ldr	r1, .LCPI24_0
	and	r1, r1, r0, lsr #1
	sub	r0, r0, r1
	ldr	r1, .LCPI24_1
	and	r2, r1, r0, lsr #2
	and	r0, r0, r1
	ldr	r1, .LCPI24_2
	add	r0, r0, r2
	add	r0, r0, r0, lsr #4
	and	r0, r0, r1
	ldr	r1, .LCPI24_3
	mul	r2, r0, r1
	mov	r0, #1
	.loc	21 28 29 is_stmt 0              @ ../ffssi2.c:28:29
	add	r0, r0, r2, lsr #24
	.loc	21 29 1 is_stmt 1               @ ../ffssi2.c:29:1
	bx	lr
.Ltmp176:
	.p2align	2
@ %bb.2:
	.loc	21 0 1 is_stmt 0                @ ../ffssi2.c:0:1
.LCPI24_0:
	.long	1431655765                      @ 0x55555555
.LCPI24_1:
	.long	858993459                       @ 0x33333333
.LCPI24_2:
	.long	252645135                       @ 0xf0f0f0f
.LCPI24_3:
	.long	16843009                        @ 0x1010101
.Lfunc_end24:
	.size	__ffssi2, .Lfunc_end24-__ffssi2
	.cfi_endproc
	.cantunwind
	.fnend
                                        @ -- End function
	.globl	__lshrdi3                       @ -- Begin function __lshrdi3
	.p2align	2
	.type	__lshrdi3,%function
	.code	32                              @ @__lshrdi3
__lshrdi3:
.Lfunc_begin25:
	.file	22 "/workspaces/llvmta/testcases/libraries/builtinsint/buildarmv4" "../lshrdi3.c" md5 0xc456e45323b3205c3b32d82b51570771
	.loc	22 25 0 is_stmt 1               @ ../lshrdi3.c:25:0
	.fnstart
	.cfi_startproc
@ %bb.0:                                @ %entry
	sub	sp, sp, #16
	.cfi_def_cfa_offset 16
.Ltmp177:
	.loc	22 30 9 prologue_end            @ ../lshrdi3.c:30:9
	tst	r2, #32
	.loc	22 29 15                        @ ../lshrdi3.c:29:15
	str	r1, [sp, #12]
	str	r0, [sp, #8]
	.loc	22 30 9                         @ ../lshrdi3.c:30:9
	bne	.LBB25_3
@ %bb.1:                                @ %if.else
	.loc	22 37 13                        @ ../lshrdi3.c:37:13
	cmp	r2, #0
	beq	.LBB25_5
@ %bb.2:                                @ %if.end
	.loc	22 39 34                        @ ../lshrdi3.c:39:34
	ldr	r1, [sp, #12]
	.loc	22 40 72                        @ ../lshrdi3.c:40:72
	ldr	r0, [sp, #8]
	.loc	22 39 39                        @ ../lshrdi3.c:39:39
	lsr	r3, r1, r2
	.loc	22 39 24 is_stmt 0              @ ../lshrdi3.c:39:24
	str	r3, [sp, #4]
	.loc	22 40 55 is_stmt 1              @ ../lshrdi3.c:40:55
	rsb	r3, r2, #32
	.loc	22 40 38 is_stmt 0              @ ../lshrdi3.c:40:38
	lsl	r1, r1, r3
	.loc	22 40 61                        @ ../lshrdi3.c:40:61
	orr	r0, r1, r0, lsr r2
	b	.LBB25_4
.LBB25_3:                               @ %if.then
	.loc	22 33 32 is_stmt 1              @ ../lshrdi3.c:33:32
	ldr	r1, [sp, #12]
	mov	r0, #0
	.loc	22 32 23                        @ ../lshrdi3.c:32:23
	str	r0, [sp, #4]
	.loc	22 33 43                        @ ../lshrdi3.c:33:43
	sub	r0, r2, #32
	.loc	22 33 37 is_stmt 0              @ ../lshrdi3.c:33:37
	lsr	r0, r1, r0
.LBB25_4:                               @ %if.end18
	.loc	22 0 0                          @ ../lshrdi3.c:0:0
	str	r0, [sp]
	.loc	22 42 19 is_stmt 1              @ ../lshrdi3.c:42:19
	ldm	sp, {r0, r1}
.LBB25_5:                               @ %return
	.loc	22 43 1                         @ ../lshrdi3.c:43:1
	add	sp, sp, #16
	bx	lr
.Ltmp178:
.Lfunc_end25:
	.size	__lshrdi3, .Lfunc_end25-__lshrdi3
	.cfi_endproc
	.cantunwind
	.fnend
                                        @ -- End function
	.globl	__moddi3                        @ -- Begin function __moddi3
	.p2align	2
	.type	__moddi3,%function
	.code	32                              @ @__moddi3
__moddi3:
.Lfunc_begin26:
	.file	23 "/workspaces/llvmta/testcases/libraries/builtinsint/buildarmv4" "../moddi3.c" md5 0x76733914157a978303cbe3d6f6d1c647
	.loc	23 21 0                         @ ../moddi3.c:21:0
	.fnstart
	.cfi_startproc
@ %bb.0:                                @ %entry
	push	{r4, r5, r11, lr}
	.cfi_def_cfa_offset 16
	.cfi_offset lr, -4
	.cfi_offset r11, -8
	.cfi_offset r5, -12
	.cfi_offset r4, -16
	add	r11, sp, #8
	.cfi_def_cfa r11, 8
	sub	sp, sp, #16
	mov	r5, r1
	add	r1, sp, #8
.Ltmp179:
	.loc	23 26 12 prologue_end           @ ../moddi3.c:26:12
	eor	r0, r0, r5, asr #31
	.loc	23 28 5                         @ ../moddi3.c:28:5
	str	r1, [sp]
	.loc	23 26 12                        @ ../moddi3.c:26:12
	eor	r1, r5, r5, asr #31
	.loc	23 26 17 is_stmt 0              @ ../moddi3.c:26:17
	subs	r0, r0, r5, asr #31
	sbc	r1, r1, r5, asr #31
	.loc	23 24 17 is_stmt 1              @ ../moddi3.c:24:17
	adds	r2, r2, r3, asr #31
	adc	r4, r3, r3, asr #31
	eor	r2, r2, r3, asr #31
	eor	r3, r4, r3, asr #31
	.loc	23 28 5                         @ ../moddi3.c:28:5
	bl	__udivmoddi4
	.loc	23 29 21                        @ ../moddi3.c:29:21
	ldr	r0, [sp, #8]
	ldr	r1, [sp, #12]
	.loc	23 29 23 is_stmt 0              @ ../moddi3.c:29:23
	eor	r0, r0, r5, asr #31
	eor	r1, r1, r5, asr #31
	.loc	23 29 28                        @ ../moddi3.c:29:28
	subs	r0, r0, r5, asr #31
	sbc	r1, r1, r5, asr #31
	.loc	23 29 5                         @ ../moddi3.c:29:5
	sub	sp, r11, #8
	pop	{r4, r5, r11, lr}
	bx	lr
.Ltmp180:
.Lfunc_end26:
	.size	__moddi3, .Lfunc_end26-__moddi3
	.cfi_endproc
	.cantunwind
	.fnend
                                        @ -- End function
	.globl	__modsi3                        @ -- Begin function __modsi3
	.p2align	2
	.type	__modsi3,%function
	.code	32                              @ @__modsi3
__modsi3:
.Lfunc_begin27:
	.file	24 "/workspaces/llvmta/testcases/libraries/builtinsint/buildarmv4" "../modsi3.c" md5 0xada583aff17540d2228ce14dc879fdc8
	.loc	24 21 0 is_stmt 1               @ ../modsi3.c:21:0
	.fnstart
	.cfi_startproc
@ %bb.0:                                @ %entry
	push	{r4, r5, r11, lr}
	.cfi_def_cfa_offset 16
	.cfi_offset lr, -4
	.cfi_offset r11, -8
	.cfi_offset r5, -12
	.cfi_offset r4, -16
	add	r11, sp, #8
	.cfi_def_cfa r11, 8
	mov	r4, r1
	mov	r5, r0
.Ltmp181:
	.loc	24 22 16 prologue_end           @ ../modsi3.c:22:16
	bl	__divsi3
	.loc	24 22 31 is_stmt 0              @ ../modsi3.c:22:31
	mul	r1, r0, r4
	.loc	24 22 14                        @ ../modsi3.c:22:14
	sub	r0, r5, r1
	.loc	24 22 5                         @ ../modsi3.c:22:5
	pop	{r4, r5, r11, lr}
	bx	lr
.Ltmp182:
.Lfunc_end27:
	.size	__modsi3, .Lfunc_end27-__modsi3
	.cfi_endproc
	.cantunwind
	.fnend
                                        @ -- End function
	.globl	__mulvdi3                       @ -- Begin function __mulvdi3
	.p2align	2
	.type	__mulvdi3,%function
	.code	32                              @ @__mulvdi3
__mulvdi3:
.Lfunc_begin28:
	.file	25 "/workspaces/llvmta/testcases/libraries/builtinsint/buildarmv4" "../mulvdi3.c" md5 0xbb6aa1440e4e37fe94db90279d27db10
	.loc	25 23 0 is_stmt 1               @ ../mulvdi3.c:23:0
	.fnstart
	.cfi_startproc
@ %bb.0:                                @ %entry
	push	{r4, r5, r6, r7, r8, r9, r11, lr}
	.cfi_def_cfa_offset 32
	.cfi_offset lr, -4
	.cfi_offset r11, -8
	.cfi_offset r9, -12
	.cfi_offset r8, -16
	.cfi_offset r7, -20
	.cfi_offset r6, -24
	.cfi_offset r5, -28
	.cfi_offset r4, -32
	add	r11, sp, #24
	.cfi_def_cfa r11, 8
	mov	r7, r0
.Ltmp183:
	.loc	25 27 11 prologue_end           @ ../mulvdi3.c:27:11
	eor	r0, r1, #-2147483648
	mov	r5, r3
	mov	r4, r2
	mov	r6, r1
	orrs	r0, r7, r0
	.loc	25 27 9 is_stmt 0               @ ../mulvdi3.c:27:9
	bne	.LBB28_3
@ %bb.1:                                @ %if.then
	.loc	25 29 15 is_stmt 1              @ ../mulvdi3.c:29:15
	orrs	r0, r4, r5
	.loc	25 29 25 is_stmt 0              @ ../mulvdi3.c:29:25
	eorne	r0, r4, #1
	orrsne	r0, r0, r5
	beq	.LBB28_12
@ %bb.2:                                @ %if.end
	.loc	25 31 9 is_stmt 1               @ ../mulvdi3.c:31:9
	ldr	r0, .LCPI28_0
	ldr	r2, .LCPI28_1
	mov	r1, #31
	bl	compilerrt_abort_impl
.LBB28_3:                               @ %if.end4
	.loc	25 0 9 is_stmt 0                @ ../mulvdi3.c:0:9
	mov	r0, #-2147483648
	.loc	25 33 11 is_stmt 1              @ ../mulvdi3.c:33:11
	eor	r0, r5, r0
	orrs	r0, r4, r0
	.loc	25 33 9 is_stmt 0               @ ../mulvdi3.c:33:9
	bne	.LBB28_6
@ %bb.4:                                @ %if.then6
	.loc	25 35 15 is_stmt 1              @ ../mulvdi3.c:35:15
	orrs	r0, r7, r6
	.loc	25 35 25 is_stmt 0              @ ../mulvdi3.c:35:25
	eorne	r0, r7, #1
	orrsne	r0, r0, r6
	beq	.LBB28_12
@ %bb.5:                                @ %if.end12
	.loc	25 37 9 is_stmt 1               @ ../mulvdi3.c:37:9
	ldr	r0, .LCPI28_0
	ldr	r2, .LCPI28_1
	mov	r1, #37
	bl	compilerrt_abort_impl
.LBB28_6:                               @ %if.end13
	.loc	25 42 23                        @ ../mulvdi3.c:42:23
	eor	r0, r4, r5, asr #31
	eor	r1, r5, r5, asr #31
	.loc	25 42 29 is_stmt 0              @ ../mulvdi3.c:42:29
	subs	r2, r0, r5, asr #31
	.loc	25 40 23 is_stmt 1              @ ../mulvdi3.c:40:23
	eor	r0, r7, r6, asr #31
	.loc	25 42 29                        @ ../mulvdi3.c:42:29
	sbc	r3, r1, r5, asr #31
	.loc	25 40 23                        @ ../mulvdi3.c:40:23
	eor	r1, r6, r6, asr #31
	.loc	25 40 29 is_stmt 0              @ ../mulvdi3.c:40:29
	subs	r9, r0, r6, asr #31
	sbc	r8, r1, r6, asr #31
	.loc	25 43 15 is_stmt 1              @ ../mulvdi3.c:43:15
	subs	r0, r9, #2
	sbcs	r0, r8, #0
	.loc	25 43 19 is_stmt 0              @ ../mulvdi3.c:43:19
	blt	.LBB28_12
@ %bb.7:                                @ %lor.lhs.false18
	.loc	25 43 28                        @ ../mulvdi3.c:43:28
	subs	r0, r2, #2
	sbcs	r0, r3, #0
	.loc	25 43 9                         @ ../mulvdi3.c:43:9
	blt	.LBB28_12
@ %bb.8:                                @ %if.end22
	.loc	25 0 0                          @ ../mulvdi3.c:0:0
	asr	r0, r5, #31
	asr	r1, r6, #31
	.loc	25 45 12 is_stmt 1              @ ../mulvdi3.c:45:12
	eor	r0, r1, r0
	orrs	r0, r0, r0
	.loc	25 45 9 is_stmt 0               @ ../mulvdi3.c:45:9
	bne	.LBB28_11
@ %bb.9:                                @ %if.then24
	.loc	25 47 25 is_stmt 1              @ ../mulvdi3.c:47:25
	mvn	r0, #0
	mvn	r1, #-2147483648
	bl	__divdi3
	.loc	25 47 19 is_stmt 0              @ ../mulvdi3.c:47:19
	subs	r0, r0, r9
	sbcs	r0, r1, r8
	.loc	25 47 13                        @ ../mulvdi3.c:47:13
	bge	.LBB28_12
@ %bb.10:                               @ %if.then26
	.loc	25 48 13 is_stmt 1              @ ../mulvdi3.c:48:13
	ldr	r0, .LCPI28_0
	ldr	r2, .LCPI28_1
	mov	r1, #48
	bl	compilerrt_abort_impl
.LBB28_11:                              @ %if.else
	.loc	25 52 27                        @ ../mulvdi3.c:52:27
	rsbs	r2, r2, #0
	.loc	25 52 25 is_stmt 0              @ ../mulvdi3.c:52:25
	mov	r0, #0
	mov	r1, #-2147483648
	.loc	25 52 27                        @ ../mulvdi3.c:52:27
	rsc	r3, r3, #0
	.loc	25 52 25                        @ ../mulvdi3.c:52:25
	bl	__divdi3
	.loc	25 52 19                        @ ../mulvdi3.c:52:19
	subs	r0, r0, r9
	sbcs	r0, r1, r8
	.loc	25 52 13                        @ ../mulvdi3.c:52:13
	blt	.LBB28_13
.LBB28_12:                              @ %return
	.loc	25 0 0                          @ ../mulvdi3.c:0:0
	umull	r0, r1, r7, r4
	mla	r2, r7, r5, r1
	mla	r1, r6, r4, r2
	.loc	25 56 1 is_stmt 1               @ ../mulvdi3.c:56:1
	pop	{r4, r5, r6, r7, r8, r9, r11, lr}
	bx	lr
.LBB28_13:                              @ %if.then31
	.loc	25 53 13                        @ ../mulvdi3.c:53:13
	ldr	r0, .LCPI28_0
	ldr	r2, .LCPI28_1
	mov	r1, #53
	bl	compilerrt_abort_impl
.Ltmp184:
	.p2align	2
@ %bb.14:
	.loc	25 0 13 is_stmt 0               @ ../mulvdi3.c:0:13
.LCPI28_0:
	.long	.L.str.8
.LCPI28_1:
	.long	.L__func__.__mulvdi3
.Lfunc_end28:
	.size	__mulvdi3, .Lfunc_end28-__mulvdi3
	.cfi_endproc
	.cantunwind
	.fnend
                                        @ -- End function
	.globl	__mulvsi3                       @ -- Begin function __mulvsi3
	.p2align	2
	.type	__mulvsi3,%function
	.code	32                              @ @__mulvsi3
__mulvsi3:
.Lfunc_begin29:
	.file	26 "/workspaces/llvmta/testcases/libraries/builtinsint/buildarmv4" "../mulvsi3.c" md5 0x32cd947949fac3c039bd0839cd5d7c78
	.loc	26 23 0 is_stmt 1               @ ../mulvsi3.c:23:0
	.fnstart
	.cfi_startproc
@ %bb.0:                                @ %entry
	push	{r4, r5, r6, r10, r11, lr}
	.cfi_def_cfa_offset 24
	.cfi_offset lr, -4
	.cfi_offset r11, -8
	.cfi_offset r10, -12
	.cfi_offset r6, -16
	.cfi_offset r5, -20
	.cfi_offset r4, -24
	add	r11, sp, #16
	.cfi_def_cfa r11, 8
	mov	r4, r1
	mov	r5, r0
.Ltmp185:
	.loc	26 27 9 prologue_end            @ ../mulvsi3.c:27:9
	cmp	r0, #-2147483648
	bne	.LBB29_3
@ %bb.1:                                @ %if.then
	.loc	26 29 20                        @ ../mulvsi3.c:29:20
	cmp	r4, #0
	.loc	26 29 13 is_stmt 0              @ ../mulvsi3.c:29:13
	cmpne	r4, #1
	beq	.LBB29_12
@ %bb.2:                                @ %if.end
	.loc	26 31 9 is_stmt 1               @ ../mulvsi3.c:31:9
	ldr	r0, .LCPI29_0
	ldr	r2, .LCPI29_1
	mov	r1, #31
	bl	compilerrt_abort_impl
.LBB29_3:                               @ %if.end4
	.loc	26 33 9                         @ ../mulvsi3.c:33:9
	cmp	r4, #-2147483648
	bne	.LBB29_6
@ %bb.4:                                @ %if.then6
	.loc	26 35 20                        @ ../mulvsi3.c:35:20
	cmp	r5, #0
	.loc	26 35 13 is_stmt 0              @ ../mulvsi3.c:35:13
	cmpne	r5, #1
	beq	.LBB29_12
@ %bb.5:                                @ %if.end12
	.loc	26 37 9 is_stmt 1               @ ../mulvsi3.c:37:9
	ldr	r0, .LCPI29_0
	ldr	r2, .LCPI29_1
	mov	r1, #37
	bl	compilerrt_abort_impl
.LBB29_6:                               @ %if.end13
	.loc	26 40 23                        @ ../mulvsi3.c:40:23
	eor	r0, r5, r5, asr #31
	.loc	26 40 29 is_stmt 0              @ ../mulvsi3.c:40:29
	sub	r6, r0, r5, asr #31
	.loc	26 43 19 is_stmt 1              @ ../mulvsi3.c:43:19
	cmp	r6, #2
	blt	.LBB29_12
@ %bb.7:                                @ %lor.lhs.false18
	.loc	26 0 0 is_stmt 0                @ ../mulvsi3.c:0:0
	eor	r0, r4, r4, asr #31
	sub	r1, r0, r4, asr #31
	.loc	26 43 9                         @ ../mulvsi3.c:43:9
	cmp	r1, #2
	blt	.LBB29_12
@ %bb.8:                                @ %if.end22
	.loc	26 0 0                          @ ../mulvsi3.c:0:0
	asr	r0, r4, #31
	asr	r2, r5, #31
	.loc	26 45 9 is_stmt 1               @ ../mulvsi3.c:45:9
	cmp	r2, r0
	bne	.LBB29_11
@ %bb.9:                                @ %if.then24
	.loc	26 47 25                        @ ../mulvsi3.c:47:25
	mvn	r0, #-2147483648
	bl	__divsi3
	.loc	26 47 13 is_stmt 0              @ ../mulvsi3.c:47:13
	cmp	r6, r0
	ble	.LBB29_12
@ %bb.10:                               @ %if.then26
	.loc	26 48 13 is_stmt 1              @ ../mulvsi3.c:48:13
	ldr	r0, .LCPI29_0
	ldr	r2, .LCPI29_1
	mov	r1, #48
	bl	compilerrt_abort_impl
.LBB29_11:                              @ %if.else
	.loc	26 52 27                        @ ../mulvsi3.c:52:27
	rsb	r1, r1, #0
	.loc	26 52 25 is_stmt 0              @ ../mulvsi3.c:52:25
	mov	r0, #-2147483648
	bl	__divsi3
	.loc	26 52 13                        @ ../mulvsi3.c:52:13
	cmp	r6, r0
	bgt	.LBB29_13
.LBB29_12:                              @ %return
	.loc	26 0 0                          @ ../mulvsi3.c:0:0
	mul	r0, r5, r4
	.loc	26 56 1 is_stmt 1               @ ../mulvsi3.c:56:1
	pop	{r4, r5, r6, r10, r11, lr}
	bx	lr
.LBB29_13:                              @ %if.then31
	.loc	26 53 13                        @ ../mulvsi3.c:53:13
	ldr	r0, .LCPI29_0
	ldr	r2, .LCPI29_1
	mov	r1, #53
	bl	compilerrt_abort_impl
.Ltmp186:
	.p2align	2
@ %bb.14:
	.loc	26 0 13 is_stmt 0               @ ../mulvsi3.c:0:13
.LCPI29_0:
	.long	.L.str.9
.LCPI29_1:
	.long	.L__func__.__mulvsi3
.Lfunc_end29:
	.size	__mulvsi3, .Lfunc_end29-__mulvsi3
	.cfi_endproc
	.cantunwind
	.fnend
                                        @ -- End function
	.globl	__paritydi2                     @ -- Begin function __paritydi2
	.p2align	2
	.type	__paritydi2,%function
	.code	32                              @ @__paritydi2
__paritydi2:
.Lfunc_begin30:
	.file	27 "/workspaces/llvmta/testcases/libraries/builtinsint/buildarmv4" "../paritydi2.c" md5 0xbd9549e31bcebf1c2265048ea6f18a77
	.loc	27 21 0 is_stmt 1               @ ../paritydi2.c:21:0
	.fnstart
	.cfi_startproc
@ %bb.0:                                @ %entry
	push	{r11, lr}
	.cfi_def_cfa_offset 8
	.cfi_offset lr, -4
	.cfi_offset r11, -8
	mov	r11, sp
	.cfi_def_cfa_register r11
.Ltmp187:
	.loc	27 23 11 prologue_end           @ ../paritydi2.c:23:11
	push	{r0, r1}
	.loc	27 24 33                        @ ../paritydi2.c:24:33
	eor	r0, r1, r0
	.loc	27 24 12 is_stmt 0              @ ../paritydi2.c:24:12
	bl	__paritysi2
	.loc	27 24 5                         @ ../paritydi2.c:24:5
	mov	sp, r11
	pop	{r11, lr}
	bx	lr
.Ltmp188:
.Lfunc_end30:
	.size	__paritydi2, .Lfunc_end30-__paritydi2
	.cfi_endproc
	.cantunwind
	.fnend
                                        @ -- End function
	.globl	__paritysi2                     @ -- Begin function __paritysi2
	.p2align	2
	.type	__paritysi2,%function
	.code	32                              @ @__paritysi2
__paritysi2:
.Lfunc_begin31:
	.file	28 "/workspaces/llvmta/testcases/libraries/builtinsint/buildarmv4" "../paritysi2.c" md5 0x235e89e1ac3c55fb43879550247ea25b
	.loc	28 21 0 is_stmt 1               @ ../paritysi2.c:21:0
	.fnstart
	.cfi_startproc
@ %bb.0:                                @ %entry
	.loc	28 23 7 prologue_end            @ ../paritysi2.c:23:7
	eor	r0, r0, r0, lsr #16
	mov	r1, #150
	mov	r2, #1
	.loc	28 24 7                         @ ../paritysi2.c:24:7
	eor	r0, r0, r0, lsr #8
	orr	r1, r1, #26880
	.loc	28 25 7                         @ ../paritysi2.c:25:7
	eor	r0, r0, r0, lsr #4
	.loc	28 26 26                        @ ../paritysi2.c:26:26
	and	r0, r0, #15
	.loc	28 26 34 is_stmt 0              @ ../paritysi2.c:26:34
	and	r0, r2, r1, lsr r0
	.loc	28 26 5                         @ ../paritysi2.c:26:5
	bx	lr
.Ltmp189:
.Lfunc_end31:
	.size	__paritysi2, .Lfunc_end31-__paritysi2
	.cfi_endproc
	.cantunwind
	.fnend
                                        @ -- End function
	.globl	__popcountdi2                   @ -- Begin function __popcountdi2
	.p2align	2
	.type	__popcountdi2,%function
	.code	32                              @ @__popcountdi2
__popcountdi2:
.Lfunc_begin32:
	.file	29 "/workspaces/llvmta/testcases/libraries/builtinsint/buildarmv4" "../popcountdi2.c" md5 0x05f001da7fc478c773612fd707769c2a
	.loc	29 21 0 is_stmt 1               @ ../popcountdi2.c:21:0
	.fnstart
	.cfi_startproc
@ %bb.0:                                @ %entry
	ldr	r12, .LCPI32_0
.Ltmp190:
	.loc	29 23 20 prologue_end           @ ../popcountdi2.c:23:20
	lsrs	r2, r1, #1
	rrx	r3, r0
	.loc	29 23 26 is_stmt 0              @ ../popcountdi2.c:23:26
	and	r3, r3, r12
	and	r2, r2, r12
	ldr	r12, .LCPI32_2
	.loc	29 23 13                        @ ../popcountdi2.c:23:13
	subs	r0, r0, r3
	sbc	r1, r1, r2
	ldr	r2, .LCPI32_1
	.loc	29 25 52 is_stmt 1              @ ../popcountdi2.c:25:52
	and	r3, r1, r2
	.loc	29 25 21 is_stmt 0              @ ../popcountdi2.c:25:21
	and	r1, r2, r1, lsr #2
	.loc	29 25 46                        @ ../popcountdi2.c:25:46
	add	r1, r1, r3
	.loc	29 25 52                        @ ../popcountdi2.c:25:52
	and	r3, r0, r2
	.loc	29 25 21                        @ ../popcountdi2.c:25:21
	and	r0, r2, r0, lsr #2
	.loc	29 25 46                        @ ../popcountdi2.c:25:46
	add	r0, r0, r3
	.loc	29 27 14 is_stmt 1              @ ../popcountdi2.c:27:14
	add	r1, r1, r1, lsr #4
	add	r0, r0, r0, lsr #4
	.loc	29 27 27 is_stmt 0              @ ../popcountdi2.c:27:27
	and	r1, r1, r12
	and	r0, r0, r12
	.loc	29 29 28 is_stmt 1              @ ../popcountdi2.c:29:28
	add	r0, r0, r1
	.loc	29 32 11                        @ ../popcountdi2.c:32:11
	add	r0, r0, r0, lsr #16
	.loc	29 35 15                        @ ../popcountdi2.c:35:15
	add	r0, r0, r0, lsr #8
	.loc	29 35 27 is_stmt 0              @ ../popcountdi2.c:35:27
	and	r0, r0, #255
	.loc	29 35 5                         @ ../popcountdi2.c:35:5
	bx	lr
.Ltmp191:
	.p2align	2
@ %bb.1:
	.loc	29 0 5                          @ ../popcountdi2.c:0:5
.LCPI32_0:
	.long	1431655765                      @ 0x55555555
.LCPI32_1:
	.long	858993459                       @ 0x33333333
.LCPI32_2:
	.long	252645135                       @ 0xf0f0f0f
.Lfunc_end32:
	.size	__popcountdi2, .Lfunc_end32-__popcountdi2
	.cfi_endproc
	.cantunwind
	.fnend
                                        @ -- End function
	.globl	__popcountsi2                   @ -- Begin function __popcountsi2
	.p2align	2
	.type	__popcountsi2,%function
	.code	32                              @ @__popcountsi2
__popcountsi2:
.Lfunc_begin33:
	.file	30 "/workspaces/llvmta/testcases/libraries/builtinsint/buildarmv4" "../popcountsi2.c" md5 0xf9ebedb2d8810ee5a54fff38e1b09d64
	.loc	30 21 0 is_stmt 1               @ ../popcountsi2.c:21:0
	.fnstart
	.cfi_startproc
@ %bb.0:                                @ %entry
	ldr	r1, .LCPI33_0
.Ltmp192:
	.loc	30 23 23 prologue_end           @ ../popcountsi2.c:23:23
	and	r1, r1, r0, lsr #1
	.loc	30 23 11 is_stmt 0              @ ../popcountsi2.c:23:11
	sub	r0, r0, r1
	ldr	r1, .LCPI33_1
	.loc	30 25 38 is_stmt 1              @ ../popcountsi2.c:25:38
	and	r2, r0, r1
	.loc	30 25 19 is_stmt 0              @ ../popcountsi2.c:25:19
	and	r0, r1, r0, lsr #2
	ldr	r1, .LCPI33_2
	.loc	30 25 33                        @ ../popcountsi2.c:25:33
	add	r0, r0, r2
	.loc	30 27 12 is_stmt 1              @ ../popcountsi2.c:27:12
	add	r0, r0, r0, lsr #4
	.loc	30 27 24 is_stmt 0              @ ../popcountsi2.c:27:24
	and	r0, r0, r1
	.loc	30 29 12 is_stmt 1              @ ../popcountsi2.c:29:12
	add	r0, r0, r0, lsr #16
	.loc	30 32 15                        @ ../popcountsi2.c:32:15
	add	r0, r0, r0, lsr #8
	.loc	30 32 27 is_stmt 0              @ ../popcountsi2.c:32:27
	and	r0, r0, #255
	.loc	30 32 5                         @ ../popcountsi2.c:32:5
	bx	lr
.Ltmp193:
	.p2align	2
@ %bb.1:
	.loc	30 0 5                          @ ../popcountsi2.c:0:5
.LCPI33_0:
	.long	1431655765                      @ 0x55555555
.LCPI33_1:
	.long	858993459                       @ 0x33333333
.LCPI33_2:
	.long	252645135                       @ 0xf0f0f0f
.Lfunc_end33:
	.size	__popcountsi2, .Lfunc_end33-__popcountsi2
	.cfi_endproc
	.cantunwind
	.fnend
                                        @ -- End function
	.globl	__subvdi3                       @ -- Begin function __subvdi3
	.p2align	2
	.type	__subvdi3,%function
	.code	32                              @ @__subvdi3
__subvdi3:
.Lfunc_begin34:
	.file	31 "/workspaces/llvmta/testcases/libraries/builtinsint/buildarmv4" "../subvdi3.c" md5 0x5774ab7a3a8e168deb55531047d6a873
	.loc	31 23 0 is_stmt 1               @ ../subvdi3.c:23:0
	.fnstart
	.cfi_startproc
@ %bb.0:                                @ %entry
	push	{r11, lr}
	.cfi_def_cfa_offset 8
	.cfi_offset lr, -4
	.cfi_offset r11, -8
	mov	r11, sp
	.cfi_def_cfa_register r11
	mov	lr, r0
.Ltmp194:
	.loc	31 24 27 prologue_end           @ ../subvdi3.c:24:27
	subs	r0, r0, r2
	mov	r12, r1
	sbc	r1, r1, r3
	.loc	31 25 9                         @ ../subvdi3.c:25:9
	cmp	r3, #0
	bmi	.LBB34_3
@ %bb.1:                                @ %if.then
	.loc	31 27 15                        @ ../subvdi3.c:27:15
	subs	r2, lr, r0
	sbcs	r2, r12, r1
	.loc	31 27 13 is_stmt 0              @ ../subvdi3.c:27:13
	bge	.LBB34_4
@ %bb.2:                                @ %if.then2
	.loc	31 28 13 is_stmt 1              @ ../subvdi3.c:28:13
	ldr	r0, .LCPI34_0
	ldr	r2, .LCPI34_1
	mov	r1, #28
	bl	compilerrt_abort_impl
.LBB34_3:                               @ %if.else
	.loc	31 32 15                        @ ../subvdi3.c:32:15
	subs	r2, lr, r0
	sbcs	r2, r12, r1
	.loc	31 32 13 is_stmt 0              @ ../subvdi3.c:32:13
	bge	.LBB34_5
.LBB34_4:                               @ %if.end6
	.loc	31 35 5 is_stmt 1               @ ../subvdi3.c:35:5
	pop	{r11, lr}
	bx	lr
.LBB34_5:                               @ %if.then4
	.loc	31 33 13                        @ ../subvdi3.c:33:13
	ldr	r0, .LCPI34_0
	ldr	r2, .LCPI34_1
	mov	r1, #33
	bl	compilerrt_abort_impl
.Ltmp195:
	.p2align	2
@ %bb.6:
	.loc	31 0 13 is_stmt 0               @ ../subvdi3.c:0:13
.LCPI34_0:
	.long	.L.str.12
.LCPI34_1:
	.long	.L__func__.__subvdi3
.Lfunc_end34:
	.size	__subvdi3, .Lfunc_end34-__subvdi3
	.cfi_endproc
	.cantunwind
	.fnend
                                        @ -- End function
	.globl	__subvsi3                       @ -- Begin function __subvsi3
	.p2align	2
	.type	__subvsi3,%function
	.code	32                              @ @__subvsi3
__subvsi3:
.Lfunc_begin35:
	.file	32 "/workspaces/llvmta/testcases/libraries/builtinsint/buildarmv4" "../subvsi3.c" md5 0xc9558a85e8fabce36f42a29933bd87e9
	.loc	32 23 0 is_stmt 1               @ ../subvsi3.c:23:0
	.fnstart
	.cfi_startproc
@ %bb.0:                                @ %entry
	push	{r11, lr}
	.cfi_def_cfa_offset 8
	.cfi_offset lr, -4
	.cfi_offset r11, -8
	mov	r11, sp
	.cfi_def_cfa_register r11
	mov	r2, r0
.Ltmp196:
	.loc	32 24 27 prologue_end           @ ../subvsi3.c:24:27
	sub	r0, r0, r1
	.loc	32 25 9                         @ ../subvsi3.c:25:9
	cmp	r1, #0
	bmi	.LBB35_3
@ %bb.1:                                @ %if.then
	.loc	32 27 13                        @ ../subvsi3.c:27:13
	cmp	r0, r2
	ble	.LBB35_4
@ %bb.2:                                @ %if.then2
	.loc	32 28 13                        @ ../subvsi3.c:28:13
	ldr	r0, .LCPI35_0
	ldr	r2, .LCPI35_1
	mov	r1, #28
	bl	compilerrt_abort_impl
.LBB35_3:                               @ %if.else
	.loc	32 32 13                        @ ../subvsi3.c:32:13
	cmp	r0, r2
	ble	.LBB35_5
.LBB35_4:                               @ %if.end6
	.loc	32 35 5                         @ ../subvsi3.c:35:5
	pop	{r11, lr}
	bx	lr
.LBB35_5:                               @ %if.then4
	.loc	32 33 13                        @ ../subvsi3.c:33:13
	ldr	r0, .LCPI35_0
	ldr	r2, .LCPI35_1
	mov	r1, #33
	bl	compilerrt_abort_impl
.Ltmp197:
	.p2align	2
@ %bb.6:
	.loc	32 0 13 is_stmt 0               @ ../subvsi3.c:0:13
.LCPI35_0:
	.long	.L.str.13
.LCPI35_1:
	.long	.L__func__.__subvsi3
.Lfunc_end35:
	.size	__subvsi3, .Lfunc_end35-__subvsi3
	.cfi_endproc
	.cantunwind
	.fnend
                                        @ -- End function
	.globl	__ucmpdi2                       @ -- Begin function __ucmpdi2
	.p2align	2
	.type	__ucmpdi2,%function
	.code	32                              @ @__ucmpdi2
__ucmpdi2:
.Lfunc_begin36:
	.file	33 "/workspaces/llvmta/testcases/libraries/builtinsint/buildarmv4" "../ucmpdi2.c" md5 0x79f778ef54939446d175079e19d07756
	.loc	33 24 0 is_stmt 1               @ ../ucmpdi2.c:24:0
	.fnstart
	.cfi_startproc
@ %bb.0:                                @ %entry
	sub	sp, sp, #16
	.cfi_def_cfa_offset 16
.Ltmp198:
	.loc	33 26 11 prologue_end           @ ../ucmpdi2.c:26:11
	str	r0, [sp, #8]
	mov	r0, #0
	.loc	33 29 9                         @ ../ucmpdi2.c:29:9
	cmp	r1, r3
	.loc	33 26 11                        @ ../ucmpdi2.c:26:11
	str	r1, [sp, #12]
	.loc	33 28 11                        @ ../ucmpdi2.c:28:11
	stm	sp, {r2, r3}
	.loc	33 29 9                         @ ../ucmpdi2.c:29:9
	blo	.LBB36_4
@ %bb.1:                                @ %if.end
	.loc	33 31 24                        @ ../ucmpdi2.c:31:24
	ldr	r1, [sp, #4]
	.loc	33 31 13 is_stmt 0              @ ../ucmpdi2.c:31:13
	ldr	r2, [sp, #12]
	.loc	33 31 9                         @ ../ucmpdi2.c:31:9
	cmp	r2, r1
	movhi	r0, #2
	.loc	33 38 1 is_stmt 1               @ ../ucmpdi2.c:38:1
	addhi	sp, sp, #16
	bxhi	lr
.LBB36_2:                               @ %if.end10
	.loc	33 33 23                        @ ../ucmpdi2.c:33:23
	ldr	r1, [sp]
	.loc	33 33 13 is_stmt 0              @ ../ucmpdi2.c:33:13
	ldr	r2, [sp, #8]
	.loc	33 33 9                         @ ../ucmpdi2.c:33:9
	cmp	r2, r1
	blo	.LBB36_4
@ %bb.3:                                @ %if.end16
	.loc	33 35 23 is_stmt 1              @ ../ucmpdi2.c:35:23
	ldr	r0, [sp]
	.loc	33 35 13 is_stmt 0              @ ../ucmpdi2.c:35:13
	ldr	r1, [sp, #8]
	.loc	33 35 9                         @ ../ucmpdi2.c:35:9
	cmp	r1, r0
	mov	r0, #2
	movls	r0, #1
.LBB36_4:                               @ %return
	.loc	33 38 1 is_stmt 1               @ ../ucmpdi2.c:38:1
	add	sp, sp, #16
	bx	lr
.Ltmp199:
.Lfunc_end36:
	.size	__ucmpdi2, .Lfunc_end36-__ucmpdi2
	.cfi_endproc
	.cantunwind
	.fnend
                                        @ -- End function
	.globl	__aeabi_ulcmp                   @ -- Begin function __aeabi_ulcmp
	.p2align	2
	.type	__aeabi_ulcmp,%function
	.code	32                              @ @__aeabi_ulcmp
__aeabi_ulcmp:
.Lfunc_begin37:
	.loc	33 47 0                         @ ../ucmpdi2.c:47:0
	.fnstart
	.cfi_startproc
@ %bb.0:                                @ %entry
	push	{r11, lr}
	.cfi_def_cfa_offset 8
	.cfi_offset lr, -4
	.cfi_offset r11, -8
	mov	r11, sp
	.cfi_def_cfa_register r11
.Ltmp200:
	.loc	33 48 9 prologue_end            @ ../ucmpdi2.c:48:9
	bl	__ucmpdi2
	.loc	33 48 25 is_stmt 0              @ ../ucmpdi2.c:48:25
	sub	r0, r0, #1
	.loc	33 48 2                         @ ../ucmpdi2.c:48:2
	pop	{r11, lr}
	bx	lr
.Ltmp201:
.Lfunc_end37:
	.size	__aeabi_ulcmp, .Lfunc_end37-__aeabi_ulcmp
	.cfi_endproc
	.cantunwind
	.fnend
                                        @ -- End function
	.globl	__udivdi3                       @ -- Begin function __udivdi3
	.p2align	2
	.type	__udivdi3,%function
	.code	32                              @ @__udivdi3
__udivdi3:
.Lfunc_begin38:
	.file	34 "/workspaces/llvmta/testcases/libraries/builtinsint/buildarmv4" "../udivdi3.c" md5 0x580a28989090b62fc3d261faa6e31a6b
	.loc	34 21 0 is_stmt 1               @ ../udivdi3.c:21:0
	.fnstart
	.cfi_startproc
@ %bb.0:                                @ %entry
	push	{r11, lr}
	.cfi_def_cfa_offset 8
	.cfi_offset lr, -4
	.cfi_offset r11, -8
	mov	r11, sp
	.cfi_def_cfa_register r11
	sub	sp, sp, #8
	mov	r12, #0
.Ltmp202:
	.loc	34 22 12 prologue_end           @ ../udivdi3.c:22:12
	str	r12, [sp]
	bl	__udivmoddi4
	.loc	34 22 5 is_stmt 0               @ ../udivdi3.c:22:5
	mov	sp, r11
	pop	{r11, lr}
	bx	lr
.Ltmp203:
.Lfunc_end38:
	.size	__udivdi3, .Lfunc_end38-__udivdi3
	.cfi_endproc
	.cantunwind
	.fnend
                                        @ -- End function
	.globl	__udivmodsi4                    @ -- Begin function __udivmodsi4
	.p2align	2
	.type	__udivmodsi4,%function
	.code	32                              @ @__udivmodsi4
__udivmodsi4:
.Lfunc_begin39:
	.file	35 "/workspaces/llvmta/testcases/libraries/builtinsint/buildarmv4" "../udivmodsi4.c" md5 0xc0341684574a20dbcfbe4df0ab9f8538
	.loc	35 21 0 is_stmt 1               @ ../udivmodsi4.c:21:0
	.fnstart
	.cfi_startproc
@ %bb.0:                                @ %entry
	push	{r4, r5, r6, r10, r11, lr}
	.cfi_def_cfa_offset 24
	.cfi_offset lr, -4
	.cfi_offset r11, -8
	.cfi_offset r10, -12
	.cfi_offset r6, -16
	.cfi_offset r5, -20
	.cfi_offset r4, -24
	add	r11, sp, #16
	.cfi_def_cfa r11, 8
	mov	r4, r2
	mov	r5, r1
	mov	r6, r0
.Ltmp204:
	.loc	35 22 14 prologue_end           @ ../udivmodsi4.c:22:14
	bl	__udivsi3
	.loc	35 23 16                        @ ../udivmodsi4.c:23:16
	mul	r1, r0, r5
	.loc	35 23 12 is_stmt 0              @ ../udivmodsi4.c:23:12
	sub	r1, r6, r1
	.loc	35 23 8                         @ ../udivmodsi4.c:23:8
	str	r1, [r4]
	.loc	35 24 3 is_stmt 1               @ ../udivmodsi4.c:24:3
	pop	{r4, r5, r6, r10, r11, lr}
	bx	lr
.Ltmp205:
.Lfunc_end39:
	.size	__udivmodsi4, .Lfunc_end39-__udivmodsi4
	.cfi_endproc
	.cantunwind
	.fnend
                                        @ -- End function
	.globl	__udivsi3                       @ -- Begin function __udivsi3
	.p2align	2
	.type	__udivsi3,%function
	.code	32                              @ @__udivsi3
__udivsi3:
.Lfunc_begin40:
	.file	36 "/workspaces/llvmta/testcases/libraries/builtinsint/buildarmv4" "../udivsi3.c" md5 0xb74987a973aededf95faab34db33f58a
	.loc	36 26 0                         @ ../udivsi3.c:26:0
	.fnstart
	.cfi_startproc
@ %bb.0:                                @ %entry
	push	{r4, r5, r6, r7, r11, lr}
	.cfi_def_cfa_offset 24
	.cfi_offset lr, -4
	.cfi_offset r11, -8
	.cfi_offset r7, -12
	.cfi_offset r6, -16
	.cfi_offset r5, -20
	.cfi_offset r4, -24
	add	r11, sp, #16
	.cfi_def_cfa r11, 8
.Ltmp206:
	.loc	36 32 9 prologue_end            @ ../udivsi3.c:32:9
	cmp	r1, #0
	mov	r5, #0
	movne	r6, r0
	.loc	36 34 9                         @ ../udivsi3.c:34:9
	cmpne	r0, #0
	bne	.LBB40_2
.LBB40_1:                               @ %return
	.loc	36 66 1                         @ ../udivsi3.c:66:1
	mov	r0, r5
	pop	{r4, r5, r6, r7, r11, lr}
	bx	lr
.LBB40_2:                               @ %if.end3
	.loc	36 36 10                        @ ../udivsi3.c:36:10
	mov	r0, r1
	mov	r4, r1
	bl	__clzsi2
	mov	r7, r0
	.loc	36 36 29 is_stmt 0              @ ../udivsi3.c:36:29
	mov	r0, r6
	bl	__clzsi2
	.loc	36 36 27                        @ ../udivsi3.c:36:27
	sub	r1, r7, r0
	.loc	36 38 9 is_stmt 1               @ ../udivsi3.c:38:9
	cmp	r1, #31
	bhi	.LBB40_1
@ %bb.3:                                @ %if.end6
	.loc	36 40 9                         @ ../udivsi3.c:40:9
	bne	.LBB40_5
@ %bb.4:
	.loc	36 0 9 is_stmt 0                @ ../udivsi3.c:0:9
	mov	r5, r6
	b	.LBB40_1
.LBB40_5:                               @ %if.end9
	.loc	36 48 5 is_stmt 1               @ ../udivsi3.c:48:5
	mvn	r2, r7
	mov	r3, #0
	add	r0, r2, r0
	.loc	36 42 5                         @ ../udivsi3.c:42:5
	add	r2, r1, #1
	.loc	36 45 28                        @ ../udivsi3.c:45:28
	rsb	r1, r1, #31
	.loc	36 46 11                        @ ../udivsi3.c:46:11
	lsr	r2, r6, r2
	.loc	36 45 11                        @ ../udivsi3.c:45:11
	lsl	r1, r6, r1
	.loc	36 48 5                         @ ../udivsi3.c:48:5
	cmp	r0, #0
	beq	.LBB40_7
.LBB40_6:                               @ %for.body
                                        @ =>This Inner Loop Header: Depth=1
	.loc	36 51 22                        @ ../udivsi3.c:51:22
	lsl	r2, r2, #1
	.loc	36 48 5                         @ ../udivsi3.c:48:5
	add	r0, r0, #1
	.loc	36 51 22                        @ ../udivsi3.c:51:22
	orr	r2, r2, r1, lsr #31
	.loc	36 52 22                        @ ../udivsi3.c:52:22
	orr	r1, r3, r1, lsl #1
	.loc	36 60 41                        @ ../udivsi3.c:60:41
	mvn	r7, r2
	adds	r7, r7, r4
	.loc	36 62 11                        @ ../udivsi3.c:62:11
	submi	r2, r2, r4
	.loc	36 61 19                        @ ../udivsi3.c:61:19
	lsr	r3, r7, #31
	.loc	36 48 5                         @ ../udivsi3.c:48:5
	cmp	r0, #0
	bne	.LBB40_6
.LBB40_7:                               @ %for.end
	.loc	36 64 18                        @ ../udivsi3.c:64:18
	orr	r5, r3, r1, lsl #1
	b	.LBB40_1
.Ltmp207:
.Lfunc_end40:
	.size	__udivsi3, .Lfunc_end40-__udivsi3
	.cfi_endproc
	.cantunwind
	.fnend
                                        @ -- End function
	.globl	__umoddi3                       @ -- Begin function __umoddi3
	.p2align	2
	.type	__umoddi3,%function
	.code	32                              @ @__umoddi3
__umoddi3:
.Lfunc_begin41:
	.file	37 "/workspaces/llvmta/testcases/libraries/builtinsint/buildarmv4" "../umoddi3.c" md5 0x1a99e635325595a81040fb97dab88295
	.loc	37 21 0                         @ ../umoddi3.c:21:0
	.fnstart
	.cfi_startproc
@ %bb.0:                                @ %entry
	push	{r11, lr}
	.cfi_def_cfa_offset 8
	.cfi_offset lr, -4
	.cfi_offset r11, -8
	mov	r11, sp
	.cfi_def_cfa_register r11
	sub	sp, sp, #16
	add	r12, sp, #8
.Ltmp208:
	.loc	37 23 5 prologue_end            @ ../umoddi3.c:23:5
	str	r12, [sp]
	bl	__udivmoddi4
	.loc	37 24 12                        @ ../umoddi3.c:24:12
	ldr	r0, [sp, #8]
	ldr	r1, [sp, #12]
	.loc	37 24 5 is_stmt 0               @ ../umoddi3.c:24:5
	mov	sp, r11
	pop	{r11, lr}
	bx	lr
.Ltmp209:
.Lfunc_end41:
	.size	__umoddi3, .Lfunc_end41-__umoddi3
	.cfi_endproc
	.cantunwind
	.fnend
                                        @ -- End function
	.globl	__umodsi3                       @ -- Begin function __umodsi3
	.p2align	2
	.type	__umodsi3,%function
